(dp1
I6449
(lp2
(lp3
I10026
aF0.5
aasI10026
(lp4
(lp5
I10027
aF1
aasI10027
(lp6
(lp7
I10027
aF1
aa(lp8
I10026
aF1
aa(lp9
I10026
aF0.5
aasI6450
(lp10
(lp11
I10026
aF0.5
aasI-1
(lp12
I6527
aI6548
aI6443
aI6401
aI6444
aI6574
aI6445
aI6446
aI10067
aI893
aI1830
aI6440
aI6575
aI6400
aI6442
aI6403
aI892
aI812
aI2004
aI5134
aI5302
aI1828
as.