(dp1
I8019
(lp2
(lp3
I10045
aF0.33333333333333331
aasI10040
(lp4
(lp5
I10040
aF1
aa(lp6
I10045
aF1
aa(lp7
I10041
aF1
aa(lp8
I10043
aF1
aa(lp9
I10045
aF0.33333333333333331
aa(lp10
I10041
aF0.42857142857142855
aa(lp11
I10043
aF0.5714285714285714
aasI10041
(lp12
(lp13
I10040
aF1
aa(lp14
I10043
aF0.5714285714285714
aasI10042
(lp15
(lp16
I10041
aF0.42857142857142855
aa(lp17
I10043
aF0.5714285714285714
aasI10043
(lp18
(lp19
I10040
aF1
aa(lp20
I10041
aF0.42857142857142855
aasI10044
(lp21
(lp22
I10045
aF0.33333333333333331
aasI10045
(lp23
(lp24
I10040
aF1
aasI-1
(lp25
I7538
aI7539
aI8584
aI8587
aI6355
aI89
aI3527
aI8585
aI7537
aI8635
aI10046
aI3692
aI8634
aI3686
aI176
aI9383
aI2429
aI7536
aI3429
as.