(dp1
I10048
(lp2
(lp3
I10051
aF1
aa(lp4
I10049
aF0.59999999999999998
aasI10049
(lp5
(lp6
I10051
aF1
aa(lp7
I10048
aF0.75
aasI10050
(lp8
(lp9
I10049
aF0.59999999999999998
aasI10051
(lp10
(lp11
I10051
aF1
aa(lp12
I10048
aF1
aa(lp13
I10049
aF1
aa(lp14
I10048
aF0.75
aa(lp15
I10049
aF0.59999999999999998
aasI4588
(lp16
(lp17
I10048
aF0.75
aasI-1
(lp18
I10100
aI8662
aI8768
aI10103
aI10101
aI2590
aI4840
aI5985
aI6561
aI1629
aI5963
aI1710
aI5478
aI6416
aI5874
aI1651
aI8770
aI10151
aI10169
aI4591
aI10054
as.