(dp1
I162
(lp2
(lp3
I10061
aF0.59999999999999998
aasI10060
(lp4
(lp5
I10062
aF1
aa(lp6
I10061
aF0.59999999999999998
aasI10061
(lp7
(lp8
I10062
aF1
aa(lp9
I10060
aF0.75
aasI10062
(lp10
(lp11
I10062
aF1
aa(lp12
I10060
aF1
aa(lp13
I10061
aF1
aa(lp14
I10060
aF0.75
aa(lp15
I10061
aF0.59999999999999998
aasI10063
(lp16
(lp17
I10060
aF0.75
aasI-1
(lp18
I6254
aI549
aI1616
aI4796
aI1617
aI8239
aI550
aI10089
aI548
aI9599
aI10129
aI4193
aI164
aI4192
aI3875
aI10088
aI10090
aI4195
aI10130
aI5157
aI6533
as.