(dp1
I10088
(lp2
(lp3
I10090
aF1
aa(lp4
I10089
aF0.75
aasI10089
(lp5
(lp6
I10090
aF1
aa(lp7
I10088
aF1
aasI10090
(lp8
(lp9
I10090
aF1
aa(lp10
I10089
aF1
aa(lp11
I10088
aF1
aa(lp12
I10089
aF0.75
aa(lp13
I10088
aF1
aasI10091
(lp14
(lp15
I10089
aF0.75
aa(lp16
I10088
aF1
aasI-1
(lp17
I3872
aI4193
aI4192
aI4740
aI5821
aI4808
aI3552
aI5881
aI3961
aI5820
aI4116
aI1619
aI4053
aI3875
aI549
aI165
aI5823
aI10062
aI3553
aI1616
aI4068
as.