(dp1
I10148
(lp2
(lp3
I10095
aF0.59999999999999998
aasI10092
(lp4
(lp5
I10094
aF1
aa(lp6
I10095
aF0.59999999999999998
aa(lp7
I10093
aF0.5
aasI10093
(lp8
(lp9
I10094
aF1
aa(lp10
I10092
aF1
aasI10094
(lp11
(lp12
I10094
aF1
aa(lp13
I10092
aF1
aa(lp14
I10095
aF1
aa(lp15
I10093
aF1
aa(lp16
I10092
aF1
aa(lp17
I10095
aF0.59999999999999998
aa(lp18
I10093
aF0.5
aasI10095
(lp19
(lp20
I10094
aF1
aa(lp21
I10092
aF1
aasI10140
(lp22
(lp23
I10093
aF0.5
aasI-1
(lp24
I1630
aI1655
aI7448
aI1628
aI8770
aI124
aI5879
aI249
aI1631
aI1294
aI5533
aI251
aI7873
aI4578
aI767
aI6320
aI8329
aI250
aI4580
aI10144
as.