(dp1
I10107
(lp2
(lp3
I10107
aF1
aasI-1
(lp4
I3305
aI8098
aI10106
aI571
aI6797
aI9701
aI10104
aI8017
aI8019
aI9146
aI3501
aI9167
aI9869
aI3530
aI6873
aI8096
aI568
aI3007
aI3304
aI6874
aI10105
aI8119
aI8022
aI3004
as.