(dp1
I10148
(lp2
(lp3
I10108
aF1
aasI10110
(lp4
(lp5
I10108
aF1
aa(lp6
I10109
aF0.80000000000000004
aa(lp7
I10111
aF0.80000000000000004
aasI10108
(lp8
(lp9
I10108
aF1
aa(lp10
I10109
aF1
aa(lp11
I10111
aF1
aa(lp12
I10110
aF1
aa(lp13
I10148
aF1
aa(lp14
I10109
aF0.80000000000000004
aa(lp15
I10111
aF0.80000000000000004
aa(lp16
I10110
aF0.80000000000000004
aasI10109
(lp17
(lp18
I10108
aF1
aa(lp19
I10111
aF0.80000000000000004
aa(lp20
I10110
aF0.80000000000000004
aasI-1
(lp21
I5599
aI10151
aI10169
aI1684
aI6152
aI6077
aI6076
aI5597
aI5743
aI5596
aI1685
aI5740
aI6155
aI2021
aI6154
aI1687
aI10171
aI6078
aI5741
aI6153
asI10111
(lp22
(lp23
I10108
aF1
aa(lp24
I10109
aF0.80000000000000004
aa(lp25
I10110
aF0.80000000000000004
aas.