(dp1
I9996
(lp2
(lp3
I10107
aF1
aa(lp4
I10105
aF0.80000000000000004
aa(lp5
I9999
aF0.66666666666666663
aasI9997
(lp6
(lp7
I9996
aF0.5
aa(lp8
I9999
aF0.66666666666666663
aasI9999
(lp9
(lp10
I10107
aF1
aa(lp11
I10105
aF0.80000000000000004
aa(lp12
I9996
aF0.5
aasI10105
(lp13
(lp14
I10107
aF1
aasI10106
(lp15
(lp16
I10107
aF1
aasI10107
(lp17
(lp18
I10107
aF1
aa(lp19
I10105
aF1
aa(lp20
I9996
aF1
aa(lp21
I9999
aF1
aa(lp22
I10106
aF1
aa(lp23
I10105
aF0.80000000000000004
aa(lp24
I9996
aF0.5
aa(lp25
I9999
aF0.66666666666666663
aasI-1
(lp26
I9998
aI10104
aI7852
aI688
aI5590
aI690
aI7855
aI5340
aI689
aI5768
aI10091
aI5589
aI5591
aI5336
aI5338
aI4375
aI5337
aI3452
aI6798
as.