(dp1
I10112
(lp2
(lp3
I10115
aF1
aa(lp4
I10113
aF0.59999999999999998
aasI10113
(lp5
(lp6
I10115
aF1
aa(lp7
I10112
aF0.75
aasI10115
(lp8
(lp9
I10115
aF1
aa(lp10
I10112
aF1
aa(lp11
I10113
aF1
aa(lp12
I10112
aF0.75
aa(lp13
I10113
aF0.59999999999999998
aasI10098
(lp14
(lp15
I10113
aF0.59999999999999998
aasI8606
(lp16
(lp17
I10112
aF0.75
aasI-1
(lp18
I10135
aI776
aI8664
aI8656
aI2001
aI137
aI5904
aI10085
aI9699
aI9696
aI10097
aI10117
aI9698
aI8601
aI763
aI4550
aI8612
aI139
aI5906
aI1429
aI4753
aI1406
as.