(dp1
I10112
(lp2
(lp3
I10113
aF1
aa(lp4
I10115
aF0.59999999999999998
aasI10113
(lp5
(lp6
I10113
aF1
aa(lp7
I10112
aF1
aa(lp8
I10115
aF1
aa(lp9
I10112
aF0.75
aa(lp10
I10115
aF0.59999999999999998
aasI10115
(lp11
(lp12
I10113
aF1
aa(lp13
I10112
aF0.75
aasI8606
(lp14
(lp15
I10112
aF0.75
aasI10135
(lp16
(lp17
I10115
aF0.59999999999999998
aasI-1
(lp18
I10098
aI1620
aI1407
aI10165
aI6696
aI763
aI1438
aI6552
aI4768
aI10066
aI10088
aI1463
aI123
aI6892
aI164
aI6073
aI121
aI1266
aI4079
aI10132
aI1212
aI120
as.