(dp1
I-1
(lp2
I1097
aI1037
aI1002
aI994
aI1377
aI1290
aI1378
aI1036
aI1169
aI1098
aI1096
aI1282
aI1152
aI1145
aI1269
aI1038
aI8874
aI1106
aI1173
aI1130
aI1099
asI1012
(lp3
(lp4
I1013
aF1
aa(lp5
I1014
aF1
aa(lp6
I1015
aF1
aasI1013
(lp7
(lp8
I1013
aF1
aa(lp9
I1014
aF1
aa(lp10
I1012
aF1
aa(lp11
I1015
aF1
aa(lp12
I1014
aF1
aa(lp13
I1012
aF1
aa(lp14
I1015
aF1
aasI1014
(lp15
(lp16
I1013
aF1
aa(lp17
I1012
aF1
aa(lp18
I1015
aF1
aasI1015
(lp19
(lp20
I1013
aF1
aa(lp21
I1014
aF1
aa(lp22
I1012
aF1
aas.