(dp1
I5906
(lp2
(lp3
I10133
aF0.5
aasI10132
(lp4
(lp5
I10135
aF0.40000000000000002
aasI10133
(lp6
(lp7
I10134
aF1
aasI10134
(lp8
(lp9
I10134
aF1
aa(lp10
I10135
aF1
aa(lp11
I10133
aF1
aa(lp12
I10135
aF0.40000000000000002
aa(lp13
I10133
aF0.5
aasI10135
(lp14
(lp15
I10134
aF1
aa(lp16
I10133
aF0.5
aasI8601
(lp17
(lp18
I10135
aF0.40000000000000002
aasI-1
(lp19
I8752
aI5905
aI10087
aI5462
aI5950
aI5935
aI8611
aI5461
aI5949
aI10177
aI2777
aI5463
aI6042
aI5907
aI8658
aI5904
aI6423
aI8609
aI7926
aI8659
aI8610
as.