(dp1
I10141
(lp2
(lp3
I10170
aF0.40000000000000002
aasI10103
(lp4
(lp5
I10169
aF1
aasI10169
(lp6
(lp7
I10169
aF1
aa(lp8
I10170
aF1
aa(lp9
I10103
aF1
aa(lp10
I10170
aF0.40000000000000002
aasI10170
(lp11
(lp12
I10169
aF1
aasI6525
(lp13
(lp14
I10170
aF0.40000000000000002
aasI-1
(lp15
I6946
aI7768
aI6947
aI10132
aI10094
aI7770
aI10142
aI7769
aI10151
aI10100
aI888
aI830
aI7771
aI10078
aI9977
aI10137
aI10171
aI10160
aI822
aI10121
as.