(dp1
I8754
(lp2
(lp3
I10166
aF0.75
aasI6004
(lp4
(lp5
I10165
aF0.59999999999999998
aasI10165
(lp6
(lp7
I10164
aF1
aa(lp8
I10166
aF0.75
aasI10166
(lp9
(lp10
I10164
aF1
aa(lp11
I10165
aF0.59999999999999998
aasI10164
(lp12
(lp13
I10164
aF1
aa(lp14
I10166
aF1
aa(lp15
I10165
aF1
aa(lp16
I10166
aF0.75
aa(lp17
I10165
aF0.59999999999999998
aasI-1
(lp18
I5881
aI5883
aI5882
aI5880
aI8755
aI10128
aI7504
aI165
aI8607
aI5775
aI8753
aI10131
aI1445
aI6006
aI1446
aI5823
aI5820
aI6007
aI5821
aI1429
aI5790
as.