(dp1
I10176
(lp2
(lp3
I10179
aF0.5
aasI10177
(lp4
(lp5
I10177
aF1
aa(lp6
I10179
aF1
aa(lp7
I10179
aF0.5
aasI10178
(lp8
(lp9
I10179
aF0.5
aasI10179
(lp10
(lp11
I10177
aF1
aasI-1
(lp12
I8658
aI10087
aI10134
aI8659
aI5461
aI5905
aI5932
aI5906
aI8611
aI8656
aI2888
aI5182
aI5462
aI5934
aI5188
aI6073
aI8614
aI980
aI5933
aI8610
aI10084
as.