(dp1
I10180
(lp2
(lp3
I10181
aF1
aa(lp4
I10183
aF0.80000000000000004
aasI10181
(lp5
(lp6
I10181
aF1
aa(lp7
I10180
aF1
aa(lp8
I10183
aF1
aa(lp9
I3677
aF1
aa(lp10
I10180
aF0.59999999999999998
aa(lp11
I10183
aF0.80000000000000004
aasI10182
(lp12
(lp13
I10180
aF0.59999999999999998
aa(lp14
I10183
aF0.80000000000000004
aasI10183
(lp15
(lp16
I10181
aF1
aa(lp17
I10180
aF0.59999999999999998
aasI3677
(lp18
(lp19
I10181
aF1
aasI-1
(lp20
I3681
aI3782
aI3678
aI3775
aI3702
aI8920
aI3680
aI3682
aI8922
aI8921
aI3683
aI3694
aI3700
aI3772
aI8070
aI3684
aI2536
aI6667
aI3679
aI3693
as.