(dp1
I1032
(lp2
(lp3
I1032
aF1
aa(lp4
I1035
aF1
aa(lp5
I1140
aF1
aa(lp6
I1034
aF1
aa(lp7
I1035
aF0.59999999999999998
aa(lp8
I1034
aF0.80000000000000004
aasI1033
(lp9
(lp10
I1035
aF0.59999999999999998
aa(lp11
I1034
aF0.80000000000000004
aasI1034
(lp12
(lp13
I1032
aF1
aa(lp14
I1035
aF0.59999999999999998
aasI1035
(lp15
(lp16
I1032
aF1
aa(lp17
I1034
aF0.80000000000000004
aasI1140
(lp18
(lp19
I1032
aF1
aasI-1
(lp20
I1399
aI1141
aI1142
aI1398
aI1356
aI1391
aI1143
aI1397
aI1393
aI1028
aI1390
aI1395
aI1394
aI1419
aI1443
aI1388
aI1031
aI1459
aI1458
aI1234
as.