(dp1
I1032
(lp2
(lp3
I1034
aF0.59999999999999998
aa(lp4
I1035
aF0.80000000000000004
aasI1033
(lp5
(lp6
I1033
aF1
aa(lp7
I1034
aF1
aa(lp8
I1035
aF1
aa(lp9
I1141
aF1
aa(lp10
I1034
aF0.59999999999999998
aa(lp11
I1035
aF0.80000000000000004
aasI1034
(lp12
(lp13
I1033
aF1
aa(lp14
I1035
aF0.80000000000000004
aasI1035
(lp15
(lp16
I1033
aF1
aa(lp17
I1034
aF0.59999999999999998
aasI1141
(lp18
(lp19
I1033
aF1
aasI-1
(lp20
I1140
aI1397
aI1417
aI1031
aI1419
aI1418
aI1393
aI1142
aI1006
aI1143
aI1028
aI1398
aI1458
aI1389
aI1390
aI1029
aI1030
aI1395
aI1005
aI1459
as.