(dp1
I1040
(lp2
(lp3
I1040
aF1
aa(lp4
I1041
aF1
aa(lp5
I1042
aF1
aa(lp6
I1041
aF0.75
aa(lp7
I1042
aF1
aasI1041
(lp8
(lp9
I1040
aF1
aa(lp10
I1042
aF1
aasI1042
(lp11
(lp12
I1040
aF1
aa(lp13
I1041
aF0.75
aasI1043
(lp14
(lp15
I1041
aF0.75
aa(lp16
I1042
aF1
aasI-1
(lp17
I1157
aI5915
aI1014
aI1128
aI1015
aI1000
aI1240
aI1012
aI5913
aI5912
aI1104
aI1193
aI3892
aI992
aI4784
aI1105
aI1158
aI1013
aI1181
aI1288
aI10194
as.