(dp1
I1096
(lp2
(lp3
I1080
aF0.5
aasI1168
(lp4
(lp5
I1081
aF0.59999999999999998
aasI1175
(lp6
(lp7
I1082
aF1
aasI1080
(lp8
(lp9
I1082
aF1
aa(lp10
I1081
aF0.59999999999999998
aasI1081
(lp11
(lp12
I1082
aF1
aa(lp13
I1080
aF0.5
aasI1082
(lp14
(lp15
I1082
aF1
aa(lp16
I1081
aF1
aa(lp17
I1080
aF1
aa(lp18
I1175
aF1
aa(lp19
I1081
aF0.59999999999999998
aa(lp20
I1080
aF0.5
aasI-1
(lp21
I1118
aI1087
aI1058
aI1086
aI1139
aI1122
aI1123
aI1170
aI1097
aI1111
aI1166
aI1171
aI1167
aI1376
aI1110
aI1169
aI1014
aI1119
aI1213
as.