(dp1
I1088
(lp2
(lp3
I1090
aF1
aa(lp4
I1089
aF0.66666666666666663
aasI1089
(lp5
(lp6
I1090
aF1
aa(lp7
I1091
aF0.5
aa(lp8
I1088
aF0.42857142857142855
aasI1090
(lp9
(lp10
I1090
aF1
aa(lp11
I1091
aF1
aa(lp12
I1089
aF1
aa(lp13
I1088
aF1
aa(lp14
I1123
aF1
aa(lp15
I1091
aF0.5
aa(lp16
I1089
aF0.66666666666666663
aa(lp17
I1088
aF0.42857142857142855
aa(lp18
I1123
aF0.375
aasI1091
(lp19
(lp20
I1090
aF1
aa(lp21
I1089
aF0.66666666666666663
aasI1096
(lp22
(lp23
I1088
aF0.42857142857142855
aasI1122
(lp24
(lp25
I1123
aF0.375
aasI1123
(lp26
(lp27
I1090
aF1
aasI1147
(lp28
(lp29
I1091
aF0.5
aa(lp30
I1123
aF0.375
aasI-1
(lp31
I1270
aI1098
aI1144
aI1099
aI1118
aI1039
aI1084
aI1195
aI1150
aI1101
aI1290
aI1234
aI1279
aI1145
aI1120
aI1097
aI1281
aI1313
aI1125
aI10063
as.