(dp1
I1172
(lp2
(lp3
I1108
aF0.33333333333333331
aasI1109
(lp4
(lp5
I1109
aF1
aa(lp6
I1108
aF1
aa(lp7
I1110
aF1
aa(lp8
I1111
aF1
aa(lp9
I1108
aF0.33333333333333331
aa(lp10
I1110
aF0.66666666666666663
aa(lp11
I1111
aF0.66666666666666663
aasI1110
(lp12
(lp13
I1109
aF1
aa(lp14
I1111
aF0.66666666666666663
aasI1111
(lp15
(lp16
I1109
aF1
aa(lp17
I1110
aF0.66666666666666663
aasI1016
(lp18
(lp19
I1108
aF0.33333333333333331
aasI1108
(lp20
(lp21
I1109
aF1
aa(lp22
I1110
aF0.66666666666666663
aa(lp23
I1111
aF0.66666666666666663
aasI-1
(lp24
I1084
aI1173
aI1161
aI1170
aI1168
aI1093
aI1053
aI1018
aI1094
aI1061
aI1121
aI1169
aI1086
aI1085
aI1137
aI1073
aI1162
aI1269
aI1160
as.