(dp1
I1124
(lp2
(lp3
I1124
aF1
aa(lp4
I1125
aF1
aa(lp5
I1126
aF1
aa(lp6
I1125
aF0.75
aa(lp7
I1126
aF0.59999999999999998
aasI1125
(lp8
(lp9
I1124
aF1
aa(lp10
I1126
aF0.59999999999999998
aasI1126
(lp11
(lp12
I1124
aF1
aa(lp13
I1125
aF0.75
aasI1127
(lp14
(lp15
I1126
aF0.59999999999999998
aasI1177
(lp16
(lp17
I1125
aF0.75
aasI-1
(lp18
I1060
aI2781
aI1160
aI1062
aI992
aI1207
aI1316
aI1206
aI1349
aI2666
aI993
aI994
aI995
aI1243
aI1277
aI1241
aI1232
aI1063
aI1240
aI1234
as.