(dp1
I1121
(lp2
(lp3
I1149
aF1
aasI1096
(lp4
(lp5
I1148
aF0.42857142857142855
aasI-1
(lp6
I1097
aI1098
aI4810
aI1088
aI1145
aI1125
aI1099
aI1146
aI1624
aI3553
aI4740
aI1321
aI1101
aI4854
aI813
aI1081
aI1085
aI4243
aI5880
asI1178
(lp7
(lp8
I1150
aF0.5
aasI1148
(lp9
(lp10
I1149
aF1
aa(lp11
I1151
aF0.5714285714285714
aasI1149
(lp12
(lp13
I1149
aF1
aa(lp14
I1150
aF1
aa(lp15
I1148
aF1
aa(lp16
I1151
aF1
aa(lp17
I1121
aF1
aa(lp18
I1150
aF0.5
aa(lp19
I1148
aF0.42857142857142855
aa(lp20
I1151
aF0.5714285714285714
aasI1150
(lp21
(lp22
I1149
aF1
aa(lp23
I1151
aF0.5714285714285714
aasI1151
(lp24
(lp25
I1149
aF1
aa(lp26
I1150
aF0.5
aa(lp27
I1148
aF0.42857142857142855
aas.