(dp1
I1161
(lp2
(lp3
I1162
aF1
aasI1162
(lp4
(lp5
I1162
aF1
aa(lp6
I1163
aF1
aa(lp7
I1161
aF1
aa(lp8
I1163
aF0.40000000000000002
aasI1163
(lp9
(lp10
I1162
aF1
aasI1171
(lp11
(lp12
I1163
aF0.40000000000000002
aasI1214
(lp13
(lp14
I1163
aF0.40000000000000002
aasI-1
(lp15
I999
aI1379
aI1213
aI1215
aI1109
aI1230
aI1110
aI1025
aI1279
aI1168
aI1019
aI1278
aI1229
aI1137
aI1089
aI1081
aI1073
aI1169
aI996
aI997
aI1118
as.