(dp1
I7168
(lp2
(lp3
I116
aF0.5
aasI4808
(lp4
(lp5
I119
aF0.59999999999999998
aasI116
(lp6
(lp7
I118
aF1
aa(lp8
I117
aF1
aasI117
(lp9
(lp10
I118
aF1
aa(lp11
I119
aF0.59999999999999998
aa(lp12
I116
aF0.5
aasI118
(lp13
(lp14
I118
aF1
aa(lp15
I117
aF1
aa(lp16
I119
aF1
aa(lp17
I116
aF1
aa(lp18
I117
aF1
aa(lp19
I119
aF0.59999999999999998
aa(lp20
I116
aF0.5
aasI119
(lp21
(lp22
I118
aF1
aa(lp23
I117
aF1
aasI-1
(lp24
I2323
aI7185
aI7121
aI7165
aI7144
aI7152
aI7189
aI7145
aI8793
aI4020
aI7148
aI6620
aI7113
aI873
aI7149
aI6394
aI9084
aI7129
aI3580
aI8805
aI2353
as.