(dp1
I1105
(lp2
(lp3
I1180
aF0.59999999999999998
aasI1107
(lp4
(lp5
I1183
aF0.5
aasI-1
(lp6
I1037
aI1041
aI993
aI989
aI1015
aI1012
aI1014
aI1144
aI1152
aI1013
aI1153
aI5521
aI1106
aI1038
aI992
aI997
aI1001
aI1157
aI990
asI1180
(lp7
(lp8
I1181
aF1
aa(lp9
I1182
aF0.80000000000000004
aasI1181
(lp10
(lp11
I1181
aF1
aa(lp12
I1180
aF1
aa(lp13
I1182
aF1
aa(lp14
I1183
aF1
aa(lp15
I1180
aF0.59999999999999998
aa(lp16
I1182
aF0.80000000000000004
aa(lp17
I1183
aF0.5
aasI1182
(lp18
(lp19
I1181
aF1
aa(lp20
I1180
aF0.59999999999999998
aa(lp21
I1183
aF0.5
aasI1183
(lp22
(lp23
I1181
aF1
aa(lp24
I1182
aF0.80000000000000004
aas.