(dp1
I1184
(lp2
(lp3
I1186
aF1
aa(lp4
I1187
aF0.59999999999999998
aa(lp5
I1185
aF0.5
aasI1185
(lp6
(lp7
I1186
aF1
aa(lp8
I1184
aF0.80000000000000004
aasI1186
(lp9
(lp10
I1186
aF1
aa(lp11
I1187
aF1
aa(lp12
I1184
aF1
aa(lp13
I1185
aF1
aa(lp14
I1187
aF0.59999999999999998
aa(lp15
I1184
aF0.80000000000000004
aa(lp16
I1185
aF0.5
aasI1187
(lp17
(lp18
I1186
aF1
aa(lp19
I1184
aF0.80000000000000004
aasI1194
(lp20
(lp21
I1185
aF0.5
aasI1195
(lp22
(lp23
I1187
aF0.59999999999999998
aasI-1
(lp24
I1178
aI1100
aI1116
aI1066
aI1114
aI1118
aI1050
aI1036
aI1126
aI1177
aI1269
aI1054
aI1282
aI1192
aI1124
aI1166
aI1119
aI1102
aI1271
aI1193
as.