(dp1
I1192
(lp2
(lp3
I1193
aF1
aa(lp4
I1194
aF1
aasI1193
(lp5
(lp6
I1193
aF1
aa(lp7
I1192
aF1
aa(lp8
I1194
aF1
aa(lp9
I1192
aF0.75
aa(lp10
I1194
aF1
aasI1194
(lp11
(lp12
I1193
aF1
aa(lp13
I1192
aF0.75
aasI1195
(lp14
(lp15
I1192
aF0.75
aa(lp16
I1194
aF1
aasI-1
(lp17
I1154
aI1089
aI1036
aI1145
aI1189
aI1186
aI1049
aI1013
aI1178
aI1165
aI1177
aI1041
aI1121
aI1065
aI1188
aI1238
aI1037
aI1185
aI1184
aI1309
aI1153
as.