(dp1
I1192
(lp2
(lp3
I1195
aF1
aa(lp4
I1194
aF0.59999999999999998
aasI1193
(lp5
(lp6
I1194
aF0.59999999999999998
aa(lp7
I1192
aF0.80000000000000004
aasI1194
(lp8
(lp9
I1195
aF1
aa(lp10
I1192
aF0.80000000000000004
aasI1195
(lp11
(lp12
I1195
aF1
aa(lp13
I1194
aF1
aa(lp14
I1192
aF1
aa(lp15
I1039
aF1
aa(lp16
I1194
aF0.59999999999999998
aa(lp17
I1192
aF0.80000000000000004
aasI1039
(lp18
(lp19
I1195
aF1
aasI-1
(lp20
I1015
aI1107
aI1059
aI1067
aI1013
aI1379
aI1066
aI1054
aI1384
aI1215
aI991
aI1086
aI1271
aI1213
aI1053
aI1378
aI1051
aI1014
aI1235
aI1131
as.