(dp1
I1378
(lp2
(lp3
I1213
aF1
aasI1059
(lp4
(lp5
I1213
aF1
aasI-1
(lp6
I1212
aI999
aI1169
aI1109
aI1053
aI1081
aI1086
aI1024
aI1118
aI1108
aI1057
aI1054
aI1025
aI1377
aI1096
aI1103
aI1123
asI1229
(lp7
(lp8
I1215
aF0.33333333333333331
aasI1168
(lp9
(lp10
I1213
aF1
aasI1379
(lp11
(lp12
I1213
aF1
aasI1013
(lp13
(lp14
I1214
aF0.375
aasI1213
(lp15
(lp16
I1213
aF1
aa(lp17
I1214
aF1
aa(lp18
I1215
aF1
aa(lp19
I1378
aF1
aa(lp20
I1379
aF1
aa(lp21
I1059
aF1
aa(lp22
I1168
aF1
aa(lp23
I1214
aF0.375
aa(lp24
I1215
aF0.33333333333333331
aasI1214
(lp25
(lp26
I1213
aF1
aa(lp27
I1215
aF0.33333333333333331
aasI1215
(lp28
(lp29
I1213
aF1
aa(lp30
I1214
aF0.375
aas.