(dp1
I1224
(lp2
(lp3
I1225
aF0.59999999999999998
aasI1225
(lp4
(lp5
I1226
aF1
aa(lp6
I1227
aF0.75
aasI1226
(lp7
(lp8
I1226
aF1
aa(lp9
I1227
aF1
aa(lp10
I1225
aF1
aa(lp11
I1227
aF0.75
aa(lp12
I1225
aF0.59999999999999998
aasI1227
(lp13
(lp14
I1226
aF1
aa(lp15
I1225
aF0.59999999999999998
aasI1275
(lp16
(lp17
I1227
aF0.75
aasI-1
(lp18
I1037
aI1112
aI1039
aI1114
aI1113
aI1106
aI1036
aI1067
aI1282
aI1050
aI1066
aI1271
aI1178
aI1049
aI1044
aI1100
aI1159
aI1115
aI1322
aI1345
aI1287
as.