(dp1
I-1
(lp2
I6904
aI6905
aI162
aI313
aI3283
aI523
aI8641
aI312
aI3586
aI6906
aI9572
aI161
aI186
aI315
aI461
aI163
aI897
aI8698
aI7039
aI896
aI140
asI124
(lp3
(lp4
I125
aF1
aa(lp5
I126
aF1
aa(lp6
I127
aF1
aasI125
(lp7
(lp8
I125
aF1
aa(lp9
I126
aF1
aa(lp10
I124
aF1
aa(lp11
I127
aF1
aa(lp12
I126
aF1
aa(lp13
I124
aF1
aa(lp14
I127
aF1
aasI126
(lp15
(lp16
I125
aF1
aa(lp17
I124
aF1
aa(lp18
I127
aF1
aasI127
(lp19
(lp20
I125
aF1
aa(lp21
I126
aF1
aa(lp22
I124
aF1
aas.