(dp1
I1252
(lp2
(lp3
I1253
aF0.59999999999999998
aasI1253
(lp4
(lp5
I1255
aF1
aa(lp6
I1254
aF0.75
aasI1254
(lp7
(lp8
I1255
aF1
aa(lp9
I1253
aF0.59999999999999998
aasI1255
(lp10
(lp11
I1255
aF1
aa(lp12
I1254
aF1
aa(lp13
I1253
aF1
aa(lp14
I1254
aF0.75
aa(lp15
I1253
aF0.59999999999999998
aasI1448
(lp16
(lp17
I1254
aF0.75
aasI-1
(lp18
I1112
aI1272
aI1251
aI1451
aI2859
aI1275
aI1250
aI1273
aI1304
aI1450
aI1306
aI1197
aI1248
aI1115
aI1199
aI2867
aI1113
aI1305
aI1114
aI1246
as.