(dp1
I1255
(lp2
(lp3
I1259
aF0.75
aasI1256
(lp4
(lp5
I1257
aF0.59999999999999998
aasI1257
(lp6
(lp7
I1258
aF1
aa(lp8
I1259
aF0.75
aasI1258
(lp9
(lp10
I1258
aF1
aa(lp11
I1259
aF1
aa(lp12
I1257
aF1
aa(lp13
I1259
aF0.75
aa(lp14
I1257
aF0.59999999999999998
aasI1259
(lp15
(lp16
I1258
aF1
aa(lp17
I1257
aF0.59999999999999998
aasI-1
(lp18
I1306
aI1287
aI1307
aI1295
aI1274
aI1115
aI1263
aI1262
aI1294
aI1227
aI1304
aI1250
aI1275
aI1070
aI1114
aI1363
aI1033
aI1292
aI1254
aI1326
aI1226
as.