(dp1
I1260
(lp2
(lp3
I1262
aF1
aa(lp4
I1263
aF1
aa(lp5
I1261
aF1
aasI1261
(lp6
(lp7
I1262
aF1
aa(lp8
I1263
aF1
aa(lp9
I1260
aF0.59999999999999998
aasI1262
(lp10
(lp11
I1262
aF1
aa(lp12
I1263
aF1
aa(lp13
I1261
aF1
aa(lp14
I1260
aF1
aa(lp15
I1263
aF1
aa(lp16
I1261
aF1
aa(lp17
I1260
aF0.59999999999999998
aasI1263
(lp18
(lp19
I1262
aF1
aa(lp20
I1261
aF1
aasI1244
(lp21
(lp22
I1260
aF0.59999999999999998
aasI-1
(lp23
I1324
aI2372
aI1890
aI1303
aI1891
aI2350
aI1359
aI1258
aI1335
aI1332
aI1316
aI1358
aI974
aI1334
aI1326
aI1325
aI1230
aI1249
aI9707
aI1005
aI7139
as.