(dp1
I1264
(lp2
(lp3
I1264
aF1
aa(lp4
I1266
aF1
aa(lp5
I1266
aF0.5
aasI1265
(lp6
(lp7
I1266
aF0.5
aasI1266
(lp8
(lp9
I1264
aF1
aasI1267
(lp10
(lp11
I1266
aF0.5
aasI-1
(lp12
I1216
aI1462
aI1081
aI1217
aI1309
aI1116
aI1055
aI1224
aI1218
aI1019
aI9081
aI1308
aI1169
aI1212
aI1093
aI1095
aI1175
aI1244
aI1252
aI1000
aI1248
aI1136
as.