(dp1
I1136
(lp2
(lp3
I1277
aF0.75
aasI1278
(lp4
(lp5
I1276
aF1
aa(lp6
I1277
aF0.75
aasI1276
(lp7
(lp8
I1276
aF1
aa(lp9
I1277
aF1
aa(lp10
I1278
aF1
aa(lp11
I1277
aF0.75
aa(lp12
I1278
aF0.59999999999999998
aasI1277
(lp13
(lp14
I1276
aF1
aa(lp15
I1278
aF0.59999999999999998
aasI-1
(lp16
I1281
aI1280
aI1145
aI1169
aI1116
aI1094
aI1016
aI1146
aI4599
aI1376
aI1218
aI4598
aI1170
aI4596
aI4597
aI1002
aI1085
aI1084
aI1309
aI1025
asI1279
(lp17
(lp18
I1278
aF0.59999999999999998
aas.