(dp1
I1120
(lp2
(lp3
I1278
aF1
aasI1290
(lp4
(lp5
I1279
aF0.33333333333333331
aasI1291
(lp6
(lp7
I1279
aF0.33333333333333331
aasI-1
(lp8
I1230
aI1213
aI1379
aI1229
aI1378
aI1123
aI999
aI1215
aI1179
aI1059
aI1107
aI1054
aI1178
aI1053
aI1277
aI997
aI1096
aI1214
aI1235
asI1276
(lp9
(lp10
I1278
aF1
aasI1278
(lp11
(lp12
I1278
aF1
aa(lp13
I1279
aF1
aa(lp14
I1276
aF1
aa(lp15
I1120
aF1
aa(lp16
I1279
aF0.33333333333333331
aasI1279
(lp17
(lp18
I1278
aF1
aas.