(dp1
I-1
(lp2
I1291
aI1123
aI1119
aI1270
aI1282
aI1081
aI1271
aI1120
aI1118
aI1117
aI1089
aI1085
aI1290
aI1116
aI1126
aI1235
aI1218
aI1122
aI1150
aI1147
aI1087
asI1276
(lp3
(lp4
I1279
aF1
aa(lp5
I1278
aF0.75
aasI1277
(lp6
(lp7
I1278
aF0.75
aa(lp8
I1276
aF1
aasI1278
(lp9
(lp10
I1279
aF1
aa(lp11
I1276
aF1
aasI1279
(lp12
(lp13
I1279
aF1
aa(lp14
I1278
aF1
aa(lp15
I1276
aF1
aa(lp16
I1278
aF0.75
aa(lp17
I1276
aF1
aas.