(dp1
I1289
(lp2
(lp3
I1290
aF0.75
aasI1290
(lp4
(lp5
I1291
aF1
aa(lp6
I1279
aF0.59999999999999998
aasI1291
(lp7
(lp8
I1291
aF1
aa(lp9
I1290
aF1
aa(lp10
I1279
aF1
aa(lp11
I1290
aF0.75
aa(lp12
I1279
aF0.59999999999999998
aasI1278
(lp13
(lp14
I1279
aF0.59999999999999998
aasI-1
(lp15
I1053
aI1012
aI1059
aI1013
aI1214
aI1213
aI1379
aI1055
aI1054
aI1376
aI1106
aI1105
aI1378
aI1107
aI999
aI1282
aI1215
aI1288
aI1384
aI1052
asI1279
(lp16
(lp17
I1291
aF1
aa(lp18
I1290
aF0.75
aas.