(dp1
I1296
(lp2
(lp3
I1296
aF1
aa(lp4
I1299
aF1
aa(lp5
I1297
aF1
aa(lp6
I1298
aF1
aa(lp7
I1299
aF1
aa(lp8
I1297
aF1
aa(lp9
I1298
aF1
aasI1297
(lp10
(lp11
I1296
aF1
aa(lp12
I1299
aF1
aa(lp13
I1298
aF1
aasI1298
(lp14
(lp15
I1296
aF1
aa(lp16
I1299
aF1
aa(lp17
I1297
aF1
aasI1299
(lp18
(lp19
I1296
aF1
aa(lp20
I1297
aF1
aa(lp21
I1298
aF1
aasI-1
(lp22
I992
aI1105
aI995
aI1158
aI993
aI1320
aI1157
aI1159
aI5521
aI1240
aI1114
aI3217
aI1009
aI1321
aI1241
aI994
aI1044
aI1189
aI1067
aI2210
aI1209
as.