(dp1
I-1
(lp2
I1324
aI1362
aI1363
aI1032
aI1220
aI1004
aI1416
aI1361
aI1143
aI1398
aI1325
aI1399
aI1140
aI1395
aI1419
aI1360
aI1244
aI1035
aI1245
aI1228
aI1231
asI1356
(lp3
(lp4
I1356
aF1
aa(lp5
I1359
aF1
aa(lp6
I1358
aF1
aa(lp7
I1359
aF0.75
aa(lp8
I1358
aF1
aasI1357
(lp9
(lp10
I1359
aF0.75
aa(lp11
I1358
aF1
aasI1358
(lp12
(lp13
I1356
aF1
aa(lp14
I1359
aF0.75
aasI1359
(lp15
(lp16
I1356
aF1
aa(lp17
I1358
aF1
aas.