(dp1
I1231
(lp2
(lp3
I1228
aF0.375
aasI1356
(lp4
(lp5
I1358
aF0.42857142857142855
aa(lp6
I1359
aF0.5714285714285714
aasI1228
(lp7
(lp8
I1357
aF1
aasI1069
(lp9
(lp10
I1357
aF1
aasI1358
(lp11
(lp12
I1357
aF1
aa(lp13
I1359
aF0.5714285714285714
aa(lp14
I1228
aF0.375
aa(lp15
I1069
aF0.33333333333333331
aasI1325
(lp16
(lp17
I1357
aF1
aasI1070
(lp18
(lp19
I1069
aF0.33333333333333331
aasI1357
(lp20
(lp21
I1357
aF1
aa(lp22
I1358
aF1
aa(lp23
I1359
aF1
aa(lp24
I1325
aF1
aa(lp25
I1228
aF1
aa(lp26
I1069
aF1
aa(lp27
I1358
aF0.42857142857142855
aa(lp28
I1359
aF0.5714285714285714
aa(lp29
I1228
aF0.375
aa(lp30
I1069
aF0.33333333333333331
aasI1359
(lp31
(lp32
I1357
aF1
aa(lp33
I1358
aF0.42857142857142855
aasI-1
(lp34
I1292
aI1327
aI1245
aI1363
aI1319
aI1293
aI1295
aI1068
aI1362
aI1243
aI1324
aI1361
aI7990
aI1318
aI1246
aI1294
as.