(dp1
I-1
(lp2
I1393
aI1397
aI1398
aI1035
aI1418
aI1394
aI1417
aI1419
aI1034
aI1031
aI1395
aI1141
aI1029
aI1140
aI1033
aI1011
aI1399
aI1032
aI993
aI994
aI989
asI1388
(lp3
(lp4
I1390
aF0.5
aasI1389
(lp5
(lp6
I1389
aF1
aa(lp7
I1390
aF1
aa(lp8
I1390
aF0.5
aasI1390
(lp9
(lp10
I1389
aF1
aasI1391
(lp11
(lp12
I1390
aF0.5
aas.