(dp1
I1388
(lp2
(lp3
I1391
aF1
aa(lp4
I1390
aF0.75
aasI1389
(lp5
(lp6
I1390
aF0.75
aasI1390
(lp7
(lp8
I1391
aF1
aa(lp9
I1388
aF0.59999999999999998
aasI1391
(lp10
(lp11
I1391
aF1
aa(lp12
I1390
aF1
aa(lp13
I1388
aF1
aa(lp14
I1390
aF0.75
aa(lp15
I1388
aF0.59999999999999998
aasI1395
(lp16
(lp17
I1388
aF0.59999999999999998
aasI-1
(lp18
I1394
aI1399
aI1035
aI1234
aI1032
aI1423
aI1386
aI1422
aI1159
aI1387
aI1027
aI1026
aI1393
aI1142
aI1435
aI995
aI1459
aI988
aI1407
aI1397
as.