(dp1
I-1
(lp2
I161
aI163
aI160
aI162
aI147
aI146
aI2608
aI896
aI2564
aI3
aI144
aI145
aI186
aI3585
aI3586
aI897
aI185
aI125
aI8
aI4232
aI3524
asI140
(lp3
(lp4
I140
aF1
aa(lp5
I142
aF1
aa(lp6
I141
aF1
aa(lp7
I143
aF1
aa(lp8
I142
aF1
aa(lp9
I141
aF1
aa(lp10
I143
aF1
aasI141
(lp11
(lp12
I140
aF1
aa(lp13
I142
aF1
aa(lp14
I143
aF1
aasI142
(lp15
(lp16
I140
aF1
aa(lp17
I141
aF1
aa(lp18
I143
aF1
aasI143
(lp19
(lp20
I140
aF1
aa(lp21
I142
aF1
aa(lp22
I141
aF1
aas.