(dp1
I1380
(lp2
(lp3
I1436
aF0.42857142857142855
aasI1165
(lp4
(lp5
I1438
aF0.5
aasI-1
(lp6
I1242
aI1289
aI1290
aI1243
aI1455
aI1277
aI2843
aI1238
aI1454
aI1241
aI995
aI1252
aI1299
aI1237
aI1126
aI1318
aI1319
aI993
aI1112
aI1228
asI1177
(lp7
(lp8
I1437
aF0.59999999999999998
aasI1436
(lp9
(lp10
I1439
aF1
aasI1437
(lp11
(lp12
I1439
aF1
aa(lp13
I1438
aF0.5
aa(lp14
I1436
aF0.42857142857142855
aasI1438
(lp15
(lp16
I1439
aF1
aa(lp17
I1437
aF0.59999999999999998
aasI1439
(lp18
(lp19
I1439
aF1
aa(lp20
I1437
aF1
aa(lp21
I1438
aF1
aa(lp22
I1436
aF1
aa(lp23
I1437
aF0.59999999999999998
aa(lp24
I1438
aF0.5
aa(lp25
I1436
aF0.42857142857142855
aas.