(dp1
I144
(lp2
(lp3
I144
aF1
aa(lp4
I145
aF1
aa(lp5
I146
aF1
aa(lp6
I147
aF1
aa(lp7
I145
aF1
aa(lp8
I146
aF1
aa(lp9
I147
aF1
aasI145
(lp10
(lp11
I144
aF1
aa(lp12
I146
aF1
aa(lp13
I147
aF1
aasI146
(lp14
(lp15
I144
aF1
aa(lp16
I145
aF1
aa(lp17
I147
aF1
aasI147
(lp18
(lp19
I144
aF1
aa(lp20
I145
aF1
aa(lp21
I146
aF1
aasI-1
(lp22
I160
aI161
aI162
aI3689
aI138
aI8317
aI9001
aI143
aI3688
aI5337
aI142
aI141
aI382
aI8316
aI136
aI140
aI5305
aI8319
aI6491
aI9002
aI8629
as.