(dp1
I1253
(lp2
(lp3
I1255
aF0.42857142857142855
aa(lp4
I1254
aF0.5714285714285714
aasI1254
(lp5
(lp6
I1448
aF1
aa(lp7
I1255
aF0.42857142857142855
aasI1255
(lp8
(lp9
I1448
aF1
aa(lp10
I1254
aF0.5714285714285714
aasI1448
(lp11
(lp12
I1448
aF1
aa(lp13
I1451
aF1
aa(lp14
I1450
aF1
aa(lp15
I1449
aF1
aa(lp16
I1255
aF1
aa(lp17
I1254
aF1
aa(lp18
I1451
aF0.66666666666666663
aa(lp19
I1450
aF0.66666666666666663
aa(lp20
I1449
aF0.66666666666666663
aa(lp21
I1255
aF0.42857142857142855
aa(lp22
I1254
aF0.5714285714285714
aasI1449
(lp23
(lp24
I1448
aF1
aa(lp25
I1451
aF0.66666666666666663
aa(lp26
I1450
aF0.66666666666666663
aasI1450
(lp27
(lp28
I1448
aF1
aa(lp29
I1451
aF0.66666666666666663
aa(lp30
I1449
aF0.66666666666666663
aasI1451
(lp31
(lp32
I1448
aF1
aa(lp33
I1450
aF0.66666666666666663
aa(lp34
I1449
aF0.66666666666666663
aasI-1
(lp35
I2907
aI2867
aI2797
aI1112
aI2859
aI1115
aI1250
aI2689
aI2898
aI1252
aI1436
aI1251
aI2812
aI2649
aI2789
aI2648
aI1383
aI1248
as.