(dp1
I1462
(lp2
(lp3
I1461
aF1
aa(lp4
I1463
aF0.80000000000000004
aasI9644
(lp5
(lp6
I1460
aF0.59999999999999998
aasI1460
(lp7
(lp8
I1461
aF1
aa(lp9
I1463
aF0.80000000000000004
aasI1461
(lp10
(lp11
I1461
aF1
aa(lp12
I1460
aF1
aa(lp13
I1463
aF1
aa(lp14
I1462
aF1
aa(lp15
I1460
aF0.59999999999999998
aa(lp16
I1463
aF0.80000000000000004
aa(lp17
I1462
aF0.5
aasI1174
(lp18
(lp19
I1462
aF0.5
aasI1463
(lp20
(lp21
I1461
aF1
aa(lp22
I1460
aF0.59999999999999998
aa(lp23
I1462
aF0.5
aasI-1
(lp24
I1429
aI1430
aI5470
aI5609
aI4753
aI1385
aI6139
aI9623
aI6137
aI1431
aI9645
aI5610
aI776
aI1386
aI5540
aI1428
aI8607
aI4070
aI4623
aI5723
aI8606
as.