(dp1
I1465
(lp2
(lp3
I1465
aF1
aa(lp4
I1466
aF1
aa(lp5
I1467
aF1
aa(lp6
I1466
aF0.75
aa(lp7
I1467
aF1
aasI1466
(lp8
(lp9
I1465
aF1
aa(lp10
I1467
aF1
aasI1467
(lp11
(lp12
I1465
aF1
aa(lp13
I1466
aF0.75
aasI-1
(lp14
I8369
aI8368
aI8371
aI8370
aI1789
aI1790
aI8250
aI1788
aI8680
aI4569
aI3248
aI1829
aI8715
aI8713
aI3185
aI3249
aI5400
aI8714
aI3188
aI4643
aI8247
aI3165
asI1513
(lp15
(lp16
I1466
aF0.75
aa(lp17
I1467
aF1
aas.