(dp1
I2368
(lp2
(lp3
I1470
aF0.5
aasI9489
(lp4
(lp5
I1470
aF0.5
aasI-1
(lp6
I1082
aI1097
aI1083
aI1080
aI2604
aI1099
aI1051
aI1025
aI1072
aI1233
aI1321
aI1049
aI1352
aI1110
aI1234
aI1421
aI1098
aI1096
aI1119
aI1422
aI8024
aI8099
aI3745
asI1470
(lp7
(lp8
I1471
aF1
aasI1471
(lp9
(lp10
I1471
aF1
aa(lp11
I1470
aF1
aa(lp12
I1470
aF0.5
aas.