(dp1
I1480
(lp2
(lp3
I1482
aF1
aasI1482
(lp4
(lp5
I1482
aF1
aa(lp6
I1480
aF1
aa(lp7
I1480
aF0.5
aasI1483
(lp8
(lp9
I1480
aF0.5
aasI8109
(lp10
(lp11
I1480
aF0.5
aasI-1
(lp12
I8074
aI8073
aI8168
aI8169
aI8072
aI8180
aI8183
aI8101
aI8102
aI8016
aI8559
aI8100
aI8105
aI8078
aI8104
aI8181
aI8178
aI8176
aI8571
aI8184
aI8093
aI8075
as.