(dp1
I-1
(lp2
I8947
aI7525
aI8277
aI3287
aI6947
aI4596
aI2252
aI7702
aI9058
aI446
aI3842
aI6140
aI4597
aI6946
aI8921
aI1139
aI2131
aI3284
aI8992
aI1781
aI1268
asI1484
(lp3
(lp4
I1487
aF1
aa(lp5
I1485
aF1
aasI1485
(lp6
(lp7
I1487
aF1
aa(lp8
I1484
aF0.75
aasI1486
(lp9
(lp10
I1484
aF0.75
aa(lp11
I1485
aF1
aasI1487
(lp12
(lp13
I1487
aF1
aa(lp14
I1484
aF1
aa(lp15
I1485
aF1
aa(lp16
I1484
aF0.75
aa(lp17
I1485
aF1
aas.