(dp1
I-1
(lp2
I61
aI62
aI820
aI6969
aI0
aI823
aI3938
aI896
aI63
aI887
aI821
aI897
aI822
aI3483
aI1
aI3328
aI828
aI490
aI3461
aI3331
aI830
asI12
(lp3
(lp4
I15
aF1
aa(lp5
I14
aF1
aa(lp6
I13
aF1
aasI13
(lp7
(lp8
I15
aF1
aa(lp9
I14
aF1
aa(lp10
I12
aF1
aasI14
(lp11
(lp12
I15
aF1
aa(lp13
I13
aF1
aa(lp14
I12
aF1
aasI15
(lp15
(lp16
I15
aF1
aa(lp17
I14
aF1
aa(lp18
I13
aF1
aa(lp19
I12
aF1
aa(lp20
I14
aF1
aa(lp21
I13
aF1
aa(lp22
I12
aF1
aas.