(dp1
I1512
(lp2
(lp3
I1515
aF1
aa(lp4
I1513
aF1
aasI1513
(lp5
(lp6
I1515
aF1
aa(lp7
I1512
aF1
aa(lp8
I1514
aF0.59999999999999998
aasI1514
(lp9
(lp10
I1515
aF1
aa(lp11
I1513
aF1
aa(lp12
I1512
aF1
aasI1515
(lp13
(lp14
I1515
aF1
aa(lp15
I1513
aF1
aa(lp16
I1512
aF1
aa(lp17
I1514
aF1
aa(lp18
I1513
aF1
aa(lp19
I1512
aF1
aa(lp20
I1514
aF0.59999999999999998
aasI3254
(lp21
(lp22
I1514
aF0.59999999999999998
aasI-1
(lp23
I4591
aI4588
aI6570
aI581
aI7713
aI6567
aI3198
aI3253
aI3172
aI3196
aI4589
aI582
aI5324
aI6571
aI873
aI680
aI5519
aI6939
aI6568
aI5155
aI3252
as.