(dp1
I1506
(lp2
(lp3
I1534
aF0.5
aasI-1
(lp4
I1688
aI1694
aI1693
aI1692
aI1695
aI1494
aI1612
aI1587
aI1496
aI1497
aI1505
aI1492
aI1602
aI1604
aI1615
aI1613
aI1603
aI1658
aI1630
aI1614
asI1691
(lp5
(lp6
I1533
aF0.40000000000000002
aasI1532
(lp7
(lp8
I1533
aF0.40000000000000002
aasI1533
(lp9
(lp10
I1535
aF1
aa(lp11
I1534
aF0.5
aasI1534
(lp12
(lp13
I1535
aF1
aasI1535
(lp14
(lp15
I1535
aF1
aa(lp16
I1533
aF1
aa(lp17
I1534
aF1
aa(lp18
I1533
aF0.40000000000000002
aa(lp19
I1534
aF0.5
aas.