(dp1
I1536
(lp2
(lp3
I1537
aF1
aa(lp4
I1538
aF0.75
aasI1537
(lp5
(lp6
I1537
aF1
aa(lp7
I1538
aF1
aa(lp8
I1536
aF1
aa(lp9
I1538
aF0.75
aa(lp10
I1536
aF0.59999999999999998
aasI1538
(lp11
(lp12
I1537
aF1
aa(lp13
I1536
aF0.59999999999999998
aasI1539
(lp14
(lp15
I1538
aF0.75
aasI1643
(lp16
(lp17
I1536
aF0.59999999999999998
aasI-1
(lp18
I1647
aI1577
aI1696
aI1563
aI1586
aI1692
aI1641
aI1698
aI9441
aI1693
aI1689
aI1656
aI1640
aI1695
aI1585
aI1688
aI1642
aI1584
aI1645
aI1657
as.