(dp1
I1592
(lp2
(lp3
I1595
aF1
aa(lp4
I1594
aF1
aasI1593
(lp5
(lp6
I1592
aF0.75
aa(lp7
I1594
aF1
aasI1594
(lp8
(lp9
I1595
aF1
aa(lp10
I1592
aF0.75
aasI1595
(lp11
(lp12
I1595
aF1
aa(lp13
I1592
aF1
aa(lp14
I1594
aF1
aa(lp15
I1592
aF0.75
aa(lp16
I1594
aF1
aasI-1
(lp17
I1653
aI1652
aI1654
aI1655
aI1590
aI1641
aI1588
aI1649
aI1650
aI1643
aI1658
aI1651
aI1598
aI1600
aI1613
aI1589
aI1692
aI1604
aI1624
aI1648
aI1603
as.