(dp1
I1600
(lp2
(lp3
I1603
aF0.75
aa(lp4
I1601
aF1
aasI1601
(lp5
(lp6
I1602
aF1
aa(lp7
I1603
aF0.75
aasI1602
(lp8
(lp9
I1602
aF1
aa(lp10
I1603
aF1
aa(lp11
I1601
aF1
aa(lp12
I1603
aF0.75
aa(lp13
I1601
aF1
aasI1603
(lp14
(lp15
I1602
aF1
aa(lp16
I1601
aF1
aasI-1
(lp17
I1607
aI1609
aI1604
aI1606
aI1605
aI1608
aI1610
aI1611
aI1623
aI1694
aI1693
aI1594
aI1622
aI1621
aI1634
aI1692
aI1691
aI1590
aI1593
aI1658
aI1653
as.