(dp1
I-1
(lp2
I1686
aI1640
aI1710
aI1685
aI1687
aI1684
aI1641
aI1709
aI1711
aI1584
aI1642
aI1594
aI1658
aI1592
aI8336
aI8232
aI1635
aI1593
aI1585
aI1633
aI1692
asI1628
(lp3
(lp4
I1630
aF1
aa(lp5
I1629
aF1
aa(lp6
I1631
aF1
aasI1629
(lp7
(lp8
I1630
aF1
aa(lp9
I1631
aF1
aa(lp10
I1628
aF1
aasI1630
(lp11
(lp12
I1630
aF1
aa(lp13
I1629
aF1
aa(lp14
I1631
aF1
aa(lp15
I1628
aF1
aa(lp16
I1629
aF1
aa(lp17
I1631
aF1
aa(lp18
I1628
aF1
aasI1631
(lp19
(lp20
I1630
aF1
aa(lp21
I1629
aF1
aa(lp22
I1628
aF1
aas.