(dp1
I1542
(lp2
(lp3
I1657
aF0.59999999999999998
aasI1585
(lp4
(lp5
I1656
aF0.75
aasI1656
(lp6
(lp7
I1659
aF1
aa(lp8
I1657
aF0.59999999999999998
aasI1657
(lp9
(lp10
I1659
aF1
aa(lp11
I1656
aF0.75
aasI1659
(lp12
(lp13
I1659
aF1
aa(lp14
I1656
aF1
aa(lp15
I1657
aF1
aa(lp16
I1656
aF0.75
aa(lp17
I1657
aF0.59999999999999998
aasI-1
(lp18
I1658
aI1695
aI1584
aI1696
aI1644
aI1692
aI1693
aI965
aI1577
aI1538
aI1694
aI1698
aI1579
aI1688
aI1647
aI1645
aI1586
aI1699
aI1539
aI1587
as.