(dp1
I1673
(lp2
(lp3
I1675
aF1
aasI1675
(lp4
(lp5
I1675
aF1
aa(lp6
I1673
aF1
aa(lp7
I1673
aF0.5
aasI-1
(lp8
I9036
aI9034
aI6214
aI6333
aI9039
aI6335
aI3813
aI9038
aI9032
aI6213
aI9033
aI9035
aI7430
aI6331
aI6257
aI7490
aI6245
aI1373
aI1031
aI9020
aI7488
aI9023
aI1374
asI2158
(lp9
(lp10
I1673
aF0.5
aasI8007
(lp11
(lp12
I1673
aF0.5
aas.