(dp1
I1688
(lp2
(lp3
I1688
aF1
aa(lp4
I1691
aF1
aa(lp5
I1689
aF1
aa(lp6
I1691
aF0.75
aa(lp7
I1689
aF1
aasI1689
(lp8
(lp9
I1688
aF1
aa(lp10
I1691
aF0.75
aasI1690
(lp11
(lp12
I1691
aF0.75
aa(lp13
I1689
aF1
aasI1691
(lp14
(lp15
I1688
aF1
aa(lp16
I1689
aF1
aasI-1
(lp17
I1692
aI1694
aI1576
aI1696
aI1577
aI1584
aI1698
aI1538
aI1656
aI1539
aI1695
aI1697
aI1659
aI1578
aI1693
aI1699
aI1644
aI1585
aI1657
aI1579
aI1536
as.