(dp1
I1688
(lp2
(lp3
I1691
aF1
aa(lp4
I1689
aF0.80000000000000004
aa(lp5
I1690
aF0.80000000000000004
aasI1689
(lp6
(lp7
I1691
aF1
aa(lp8
I1688
aF0.59999999999999998
aa(lp9
I1690
aF0.80000000000000004
aasI1690
(lp10
(lp11
I1691
aF1
aa(lp12
I1689
aF0.80000000000000004
aasI1691
(lp13
(lp14
I1691
aF1
aa(lp15
I1688
aF1
aa(lp16
I1689
aF1
aa(lp17
I1690
aF1
aa(lp18
I1688
aF0.59999999999999998
aa(lp19
I1689
aF0.80000000000000004
aa(lp20
I1690
aF0.80000000000000004
aasI1692
(lp21
(lp22
I1688
aF0.59999999999999998
aasI-1
(lp23
I1694
aI1696
aI1698
aI3913
aI1697
aI1693
aI1577
aI1659
aI1699
aI3914
aI3912
aI1695
aI1657
aI9444
aI1644
aI1656
aI3144
aI6792
aI9441
aI1538
as.