(dp1
I1764
(lp2
(lp3
I1764
aF1
aa(lp4
I1765
aF1
aa(lp5
I1766
aF1
aa(lp6
I1767
aF1
aa(lp7
I1765
aF0.59999999999999998
aa(lp8
I1766
aF0.80000000000000004
aa(lp9
I1767
aF0.80000000000000004
aasI1765
(lp10
(lp11
I1764
aF1
aa(lp12
I1766
aF0.80000000000000004
aa(lp13
I1767
aF0.80000000000000004
aasI1766
(lp14
(lp15
I1764
aF1
aa(lp16
I1765
aF0.59999999999999998
aa(lp17
I1767
aF0.80000000000000004
aasI1767
(lp18
(lp19
I1764
aF1
aa(lp20
I1766
aF0.80000000000000004
aasI8187
(lp21
(lp22
I1765
aF0.59999999999999998
aasI-1
(lp23
I8184
aI1900
aI9341
aI8460
aI9918
aI8132
aI661
aI8571
aI8562
aI9906
aI8117
aI8399
aI9916
aI7809
aI8538
aI8531
aI8398
aI8570
aI8578
aI9937
aI8581
as.