(dp1
I1808
(lp2
(lp3
I1810
aF0.33333333333333331
aasI1809
(lp4
(lp5
I1810
aF0.33333333333333331
aasI1810
(lp6
(lp7
I1811
aF1
aasI1811
(lp8
(lp9
I1811
aF1
aa(lp10
I1810
aF1
aa(lp11
I1847
aF1
aa(lp12
I1844
aF1
aa(lp13
I1810
aF0.33333333333333331
aa(lp14
I1847
aF0.42857142857142855
aa(lp15
I1844
aF0.5714285714285714
aasI1844
(lp16
(lp17
I1811
aF1
aa(lp18
I1847
aF0.42857142857142855
aasI1846
(lp19
(lp20
I1847
aF0.42857142857142855
aa(lp21
I1844
aF0.5714285714285714
aasI1847
(lp22
(lp23
I1811
aF1
aa(lp24
I1844
aF0.5714285714285714
aasI-1
(lp25
I1743
aI1740
aI1701
aI1703
aI1741
aI7795
aI7392
aI1702
aI8728
aI9345
aI8730
aI7394
aI7793
aI8361
aI7371
aI1700
aI8306
aI814
as.