(dp1
I-1
(lp2
I2382
aI8223
aI2243
aI4340
aI4289
aI450
aI4343
aI82
aI6705
aI1870
aI4899
aI6995
aI3486
aI4811
aI1483
aI10007
aI10195
aI1481
aI5591
aI4809
aI219
asI1820
(lp3
(lp4
I1821
aF1
aa(lp5
I1822
aF1
aasI1821
(lp6
(lp7
I1821
aF1
aa(lp8
I1820
aF1
aa(lp9
I1822
aF1
aa(lp10
I1820
aF0.75
aa(lp11
I1822
aF1
aasI1822
(lp12
(lp13
I1821
aF1
aa(lp14
I1820
aF0.75
aasI1823
(lp15
(lp16
I1820
aF0.75
aa(lp17
I1822
aF1
aas.