(dp1
I1868
(lp2
(lp3
I1871
aF1
aa(lp4
I1870
aF0.80000000000000004
aa(lp5
I1869
aF0.80000000000000004
aasI6764
(lp6
(lp7
I1871
aF1
aasI1869
(lp8
(lp9
I1871
aF1
aa(lp10
I1870
aF0.80000000000000004
aa(lp11
I1868
aF0.80000000000000004
aasI1870
(lp12
(lp13
I1871
aF1
aa(lp14
I1868
aF0.80000000000000004
aa(lp15
I1869
aF0.80000000000000004
aa(lp16
I6764
aF0.5
aasI6767
(lp17
(lp18
I6764
aF0.5
aasI1871
(lp19
(lp20
I1871
aF1
aa(lp21
I1870
aF1
aa(lp22
I1868
aF1
aa(lp23
I1869
aF1
aa(lp24
I6764
aF1
aa(lp25
I1870
aF0.80000000000000004
aa(lp26
I1868
aF0.80000000000000004
aa(lp27
I1869
aF0.80000000000000004
aa(lp28
I6764
aF0.5
aasI-1
(lp29
I8019
aI5392
aI8067
aI3228
aI3229
aI1895
aI8064
aI5359
aI8066
aI3231
aI546
aI544
aI5393
aI6763
aI8396
aI5356
aI3230
aI1820
aI3226
as.