(dp1
I6062
(lp2
(lp3
I1876
aF1
aasI1876
(lp4
(lp5
I1876
aF1
aa(lp6
I1878
aF1
aa(lp7
I1877
aF1
aa(lp8
I1879
aF1
aa(lp9
I6062
aF1
aa(lp10
I1878
aF0.80000000000000004
aa(lp11
I1877
aF0.80000000000000004
aa(lp12
I1879
aF0.80000000000000004
aasI1877
(lp13
(lp14
I1876
aF1
aa(lp15
I1878
aF0.80000000000000004
aa(lp16
I1879
aF0.80000000000000004
aasI1878
(lp17
(lp18
I1876
aF1
aa(lp19
I1877
aF0.80000000000000004
aa(lp20
I1879
aF0.80000000000000004
aasI1879
(lp21
(lp22
I1876
aF1
aa(lp23
I1878
aF0.80000000000000004
aa(lp24
I1877
aF0.80000000000000004
aasI-1
(lp25
I1913
aI1912
aI4924
aI1914
aI1889
aI4297
aI5426
aI4678
aI4505
aI4504
aI4218
aI4529
aI4582
aI4216
aI4676
aI5586
aI4298
aI1891
aI4528
aI1929
as.