(dp1
I6784
(lp2
(lp3
I1938
aF1
aasI6785
(lp4
(lp5
I6784
aF0.5
aasI1936
(lp6
(lp7
I1938
aF1
aa(lp8
I1937
aF0.80000000000000004
aa(lp9
I1939
aF0.80000000000000004
aasI1937
(lp10
(lp11
I1938
aF1
aa(lp12
I1936
aF0.80000000000000004
aa(lp13
I1939
aF0.80000000000000004
aa(lp14
I6784
aF0.5
aasI1938
(lp15
(lp16
I1938
aF1
aa(lp17
I1936
aF1
aa(lp18
I1937
aF1
aa(lp19
I1939
aF1
aa(lp20
I6784
aF1
aa(lp21
I1936
aF0.80000000000000004
aa(lp22
I1937
aF0.80000000000000004
aa(lp23
I1939
aF0.80000000000000004
aa(lp24
I6784
aF0.5
aasI1939
(lp25
(lp26
I1938
aF1
aa(lp27
I1936
aF0.80000000000000004
aa(lp28
I1937
aF0.80000000000000004
aasI-1
(lp29
I6842
aI630
aI631
aI5578
aI4024
aI629
aI4528
aI9433
aI9432
aI628
aI6840
aI4527
aI9434
aI4529
aI9435
aI154
aI4530
aI4779
aI6874
as.