(dp1
I2313
(lp2
(lp3
I2014
aF0.59999999999999998
aasI2014
(lp4
(lp5
I2013
aF1
aa(lp6
I2012
aF1
aa(lp7
I2015
aF0.80000000000000004
aasI2012
(lp8
(lp9
I2013
aF1
aa(lp10
I2014
aF0.59999999999999998
aa(lp11
I2015
aF0.80000000000000004
aasI2013
(lp12
(lp13
I2013
aF1
aa(lp14
I2012
aF1
aa(lp15
I2014
aF1
aa(lp16
I2015
aF1
aa(lp17
I2012
aF1
aa(lp18
I2014
aF0.59999999999999998
aa(lp19
I2015
aF0.80000000000000004
aasI-1
(lp20
I8533
aI5583
aI2395
aI8580
aI3494
aI631
aI3480
aI8144
aI3022
aI9957
aI8423
aI11
aI4944
aI629
aI7388
aI9527
aI6379
aI1480
aI3076
aI7389
aI5582
asI2015
(lp21
(lp22
I2013
aF1
aa(lp23
I2012
aF1
aas.