(dp1
I5740
(lp2
(lp3
I2022
aF0.5
aasI-1
(lp4
I2023
aI5741
aI5743
aI5742
aI5352
aI6077
aI8640
aI8642
aI8643
aI6154
aI2755
aI8757
aI8641
aI5476
aI6152
aI2752
aI6076
aI9071
aI2651
aI2754
aI10111
asI2020
(lp5
(lp6
I2020
aF1
aa(lp7
I2022
aF1
aa(lp8
I2022
aF0.5
aasI2021
(lp9
(lp10
I2022
aF0.5
aasI2022
(lp11
(lp12
I2020
aF1
aas.