(dp1
I-1
(lp2
I6092
aI6782
aI6094
aI6781
aI7570
aI7968
aI2623
aI6907
aI2606
aI6780
aI5502
aI9275
aI2785
aI9200
aI7898
aI2644
aI9272
aI2952
aI9274
aI6783
aI2607
asI204
(lp3
(lp4
I206
aF0.75
aa(lp5
I205
aF1
aasI205
(lp6
(lp7
I207
aF1
aa(lp8
I206
aF0.75
aasI206
(lp9
(lp10
I207
aF1
aa(lp11
I205
aF1
aasI207
(lp12
(lp13
I207
aF1
aa(lp14
I206
aF1
aa(lp15
I205
aF1
aa(lp16
I206
aF0.75
aa(lp17
I205
aF1
aas.