(dp1
I2088
(lp2
(lp3
I2092
aF0.59999999999999998
aasI2092
(lp4
(lp5
I2093
aF1
aa(lp6
I2094
aF0.80000000000000004
aa(lp7
I2095
aF0.80000000000000004
aasI2093
(lp8
(lp9
I2093
aF1
aa(lp10
I2092
aF1
aa(lp11
I2094
aF1
aa(lp12
I2095
aF1
aa(lp13
I2092
aF0.59999999999999998
aa(lp14
I2094
aF0.80000000000000004
aa(lp15
I2095
aF0.80000000000000004
aasI2094
(lp16
(lp17
I2093
aF1
aa(lp18
I2092
aF0.59999999999999998
aa(lp19
I2095
aF0.80000000000000004
aasI2095
(lp20
(lp21
I2093
aF1
aa(lp22
I2094
aF0.80000000000000004
aasI-1
(lp23
I2089
aI8392
aI1543
aI2091
aI2116
aI9441
aI2118
aI2119
aI8064
aI2090
aI4862
aI4810
aI4863
aI1542
aI4974
aI8066
aI8019
aI9444
aI8065
aI2117
as.