(dp1
I5409
(lp2
(lp3
I2103
aF0.75
aasI2100
(lp4
(lp5
I2100
aF1
aa(lp6
I2103
aF1
aa(lp7
I2102
aF1
aa(lp8
I2103
aF0.75
aa(lp9
I2102
aF0.59999999999999998
aasI2101
(lp10
(lp11
I2102
aF0.59999999999999998
aasI2102
(lp12
(lp13
I2100
aF1
aa(lp14
I2103
aF0.75
aasI2103
(lp15
(lp16
I2100
aF1
aa(lp17
I2102
aF0.59999999999999998
aasI-1
(lp18
I8891
aI1885
aI1891
aI5411
aI9080
aI2067
aI4637
aI8235
aI8889
aI3888
aI4598
aI1889
aI2050
aI5408
aI6944
aI1251
aI9473
aI4654
aI6834
aI6283
as.