(dp1
I3141
(lp2
(lp3
I2110
aF0.42857142857142855
aasI5064
(lp4
(lp5
I2109
aF0.59999999999999998
aasI5067
(lp6
(lp7
I2111
aF0.5
aasI-1
(lp8
I3356
aI3355
aI335
aI3142
aI337
aI2059
aI3140
aI332
aI3156
aI6848
aI5154
aI5033
aI6832
aI333
aI9475
aI264
aI9473
aI3349
aI338
aI1696
asI2108
(lp9
(lp10
I2108
aF1
aa(lp11
I2109
aF1
aa(lp12
I2111
aF1
aa(lp13
I2110
aF1
aa(lp14
I2109
aF0.59999999999999998
aa(lp15
I2111
aF0.5
aa(lp16
I2110
aF0.42857142857142855
aasI2109
(lp17
(lp18
I2108
aF1
aa(lp19
I2111
aF0.5
aasI2110
(lp20
(lp21
I2108
aF1
aasI2111
(lp22
(lp23
I2108
aF1
aa(lp24
I2109
aF0.59999999999999998
aa(lp25
I2110
aF0.42857142857142855
aas.