(dp1
I2760
(lp2
(lp3
I2123
aF0.5
aasI2122
(lp4
(lp5
I2122
aF1
aa(lp6
I2123
aF1
aa(lp7
I2123
aF0.5
aasI2123
(lp8
(lp9
I2122
aF1
aasI-1
(lp10
I9217
aI9263
aI9262
aI9260
aI9303
aI9301
aI9261
aI9302
aI9300
aI9308
aI9358
aI9309
aI9224
aI9228
aI9225
aI9785
aI9350
aI9219
aI9331
aI2546
aI9230
aI9330
aI9202
asI2902
(lp11
(lp12
I2123
aF0.5
aas.