(dp1
I2146
(lp2
(lp3
I2147
aF1
aasI2147
(lp4
(lp5
I2147
aF1
aa(lp6
I2146
aF1
aa(lp7
I2146
aF0.5
aasI2212
(lp8
(lp9
I2146
aF0.5
aasI-1
(lp10
I1869
aI1868
aI1867
aI1866
aI1864
aI1865
aI2484
aI3147
aI3145
aI3670
aI3639
aI1871
aI6702
aI2456
aI3144
aI3669
aI2421
aI3118
aI3143
aI1872
aI2193
asI2215
(lp11
(lp12
I2146
aF0.5
aas.