(dp1
I4201
(lp2
(lp3
I2156
aF0.5
aasI4203
(lp4
(lp5
I2156
aF0.5
aasI2156
(lp6
(lp7
I2157
aF1
aasI2157
(lp8
(lp9
I2157
aF1
aa(lp10
I2156
aF1
aa(lp11
I2156
aF0.5
aasI-1
(lp12
I4200
aI4197
aI4198
aI4202
aI2153
aI4199
aI2315
aI4208
aI2154
aI2152
aI4414
aI2537
aI3641
aI4209
aI3642
aI4211
aI8931
aI3514
aI8920
aI3729
aI2191
as.