(dp1
I4595
(lp2
(lp3
I2162
aF0.75
aasI2160
(lp4
(lp5
I2161
aF0.59999999999999998
aasI2161
(lp6
(lp7
I2163
aF1
aa(lp8
I2162
aF0.75
aasI2162
(lp9
(lp10
I2163
aF1
aa(lp11
I2161
aF0.59999999999999998
aasI2163
(lp12
(lp13
I2163
aF1
aa(lp14
I2162
aF1
aa(lp15
I2161
aF1
aa(lp16
I2162
aF0.75
aa(lp17
I2161
aF0.59999999999999998
aasI-1
(lp18
I7174
aI6984
aI6985
aI7126
aI450
aI8223
aI4298
aI3310
aI5154
aI1899
aI7138
aI5909
aI5240
aI967
aI7117
aI7067
aI3706
aI7094
aI2381
aI6812
aI1510
as.