(dp1
I2969
(lp2
(lp3
I2171
aF0.5
aasI2170
(lp4
(lp5
I2170
aF1
aa(lp6
I2171
aF1
aa(lp7
I2171
aF0.5
aasI2171
(lp8
(lp9
I2170
aF1
aasI8626
(lp10
(lp11
I2171
aF0.5
aasI-1
(lp12
I7584
aI2990
aI2961
aI7585
aI6968
aI8771
aI2960
aI7586
aI2168
aI3120
aI6969
aI2968
aI3123
aI7420
aI2989
aI6970
aI8625
aI890
aI3034
aI888
aI7736
as.