(dp1
I2176
(lp2
(lp3
I2178
aF1
aasI2177
(lp4
(lp5
I2178
aF1
aasI2178
(lp6
(lp7
I2178
aF1
aa(lp8
I2176
aF1
aa(lp9
I2177
aF1
aa(lp10
I2176
aF0.40000000000000002
aasI7557
(lp11
(lp12
I2176
aF0.40000000000000002
aasI6158
(lp13
(lp14
I2176
aF0.40000000000000002
aasI-1
(lp15
I7558
aI7583
aI7423
aI7580
aI3504
aI7421
aI7559
aI3540
aI3926
aI7582
aI5415
aI3924
aI334
aI7737
aI3927
aI335
aI3542
aI7541
aI6942
aI3541
as.