(dp1
I2144
(lp2
(lp3
I2252
aF0.5
aasI-1
(lp4
I2207
aI2620
aI2159
aI2621
aI3746
aI2611
aI8005
aI3745
aI2158
aI1662
aI2604
aI2609
aI2605
aI7427
aI7997
aI9104
aI3744
aI9106
aI9107
aI1673
aI8004
aI7401
aI8022
asI2252
(lp5
(lp6
I2206
aF1
aasI2253
(lp7
(lp8
I2252
aF0.5
aasI2206
(lp9
(lp10
I2206
aF1
aa(lp11
I2252
aF1
aa(lp12
I2252
aF0.5
aas.