(dp1
I2212
(lp2
(lp3
I2213
aF1
aa(lp4
I2214
aF0.59999999999999998
aasI2213
(lp5
(lp6
I2213
aF1
aa(lp7
I2212
aF1
aa(lp8
I2214
aF1
aa(lp9
I2212
aF0.75
aa(lp10
I2214
aF0.59999999999999998
aasI2214
(lp11
(lp12
I2213
aF1
aa(lp13
I2212
aF0.75
aasI2215
(lp14
(lp15
I2212
aF0.75
aasI506
(lp16
(lp17
I2214
aF0.59999999999999998
aasI-1
(lp18
I1408
aI3793
aI5743
aI6896
aI6898
aI1503
aI5018
aI3937
aI6270
aI6899
aI3792
aI1410
aI3727
aI226
aI8851
aI4522
aI7122
aI4448
aI3299
aI5800
as.