(dp1
I2220
(lp2
(lp3
I2220
aF1
aa(lp4
I2221
aF1
aa(lp5
I2222
aF1
aa(lp6
I2223
aF1
aa(lp7
I2221
aF1
aa(lp8
I2222
aF0.59999999999999998
aa(lp9
I2223
aF0.80000000000000004
aasI2221
(lp10
(lp11
I2220
aF1
aa(lp12
I2222
aF0.59999999999999998
aa(lp13
I2223
aF0.80000000000000004
aasI2222
(lp14
(lp15
I2220
aF1
aa(lp16
I2221
aF1
aa(lp17
I2223
aF0.80000000000000004
aasI3791
(lp18
(lp19
I2222
aF0.59999999999999998
aasI2223
(lp20
(lp21
I2220
aF1
aa(lp22
I2221
aF1
aasI-1
(lp23
I5066
aI5372
aI2373
aI5067
aI1641
aI5065
aI1640
aI1642
aI3247
aI2232
aI5356
aI1643
aI6763
aI2239
aI6018
aI9444
aI6767
aI6019
aI5358
aI5375
as.