(dp1
I-1
(lp2
I226
aI224
aI230
aI156
aI157
aI225
aI553
aI3369
aI555
aI309
aI539
aI315
aI533
aI227
aI573
aI97
aI537
aI536
aI424
aI314
aI3348
asI220
(lp3
(lp4
I223
aF1
aa(lp5
I222
aF1
aa(lp6
I221
aF1
aasI221
(lp7
(lp8
I223
aF1
aa(lp9
I222
aF1
aa(lp10
I220
aF1
aasI222
(lp11
(lp12
I223
aF1
aa(lp13
I220
aF1
aa(lp14
I221
aF1
aasI223
(lp15
(lp16
I223
aF1
aa(lp17
I222
aF1
aa(lp18
I220
aF1
aa(lp19
I221
aF1
aa(lp20
I222
aF1
aa(lp21
I220
aF1
aa(lp22
I221
aF1
aas.