(dp1
I2240
(lp2
(lp3
I2241
aF1
aasI2241
(lp4
(lp5
I2241
aF1
aa(lp6
I2240
aF1
aa(lp7
I2240
aF0.5
aasI2242
(lp8
(lp9
I2240
aF0.5
aasI-1
(lp10
I2243
aI1885
aI10006
aI2350
aI1113
aI5912
aI7145
aI7179
aI4766
aI1823
aI8328
aI4765
aI5915
aI10047
aI5914
aI9175
aI4585
aI6721
aI2349
aI8223
aI1321
aI7151
asI4631
(lp11
(lp12
I2240
aF0.5
aas.