(dp1
I2242
(lp2
(lp3
I2242
aF1
aa(lp4
I2243
aF1
aa(lp5
I2243
aF0.5
aasI2243
(lp6
(lp7
I2242
aF1
aasI1853
(lp8
(lp9
I2243
aF0.5
aasI-1
(lp10
I8192
aI8193
aI6530
aI9154
aI8194
aI8195
aI511
aI4584
aI1346
aI3929
aI3931
aI9153
aI4586
aI4587
aI4605
aI974
aI1855
aI10007
aI4585
aI5912
aI9711
aI972
asI8223
(lp11
(lp12
I2243
aF0.5
aas.