(dp1
I4353
(lp2
(lp3
I2270
aF0.42857142857142855
aasI-1
(lp4
I2173
aI3761
aI3762
aI1977
aI4673
aI3763
aI6524
aI136
aI1979
aI4224
aI4624
aI3909
aI4225
aI6288
aI8736
aI6953
aI1976
aI8738
aI2327
asI3760
(lp5
(lp6
I2271
aF0.33333333333333331
aa(lp7
I2268
aF0.66666666666666663
aasI2270
(lp8
(lp9
I2269
aF1
aa(lp10
I2268
aF0.66666666666666663
aasI2268
(lp11
(lp12
I2269
aF1
aa(lp13
I2270
aF0.42857142857142855
aasI2269
(lp14
(lp15
I2269
aF1
aa(lp16
I2271
aF1
aa(lp17
I2268
aF1
aa(lp18
I2270
aF1
aa(lp19
I2271
aF0.33333333333333331
aa(lp20
I2268
aF0.66666666666666663
aa(lp21
I2270
aF0.42857142857142855
aasI2174
(lp22
(lp23
I2271
aF0.33333333333333331
aasI2271
(lp24
(lp25
I2269
aF1
aas.