(dp1
I-1
(lp2
I888
aI8332
aI6378
aI6479
aI6898
aI4867
aI3626
aI6377
aI6376
aI5254
aI6896
aI828
aI5253
aI6379
aI3625
aI6899
aI8145
aI5003
aI628
aI630
aI1508
aI4866
asI228
(lp3
(lp4
I229
aF0.75
aa(lp5
I231
aF1
aasI229
(lp6
(lp7
I230
aF1
aa(lp8
I231
aF1
aasI230
(lp9
(lp10
I230
aF1
aa(lp11
I229
aF1
aa(lp12
I231
aF1
aa(lp13
I229
aF0.75
aa(lp14
I231
aF1
aasI231
(lp15
(lp16
I230
aF1
aa(lp17
I229
aF0.75
aas.