(dp1
I2352
(lp2
(lp3
I2353
aF1
aa(lp4
I2355
aF0.75
aasI2353
(lp5
(lp6
I2353
aF1
aa(lp7
I2355
aF1
aa(lp8
I2352
aF1
aa(lp9
I2355
aF0.75
aa(lp10
I2352
aF1
aasI2354
(lp11
(lp12
I2355
aF0.75
aa(lp13
I2352
aF1
aasI2355
(lp14
(lp15
I2353
aF1
aa(lp16
I2352
aF1
aasI-1
(lp17
I7130
aI2323
aI6688
aI7168
aI7042
aI3816
aI2136
aI6620
aI6719
aI7080
aI6716
aI7118
aI7153
aI6743
aI6682
aI7065
aI7152
aI6714
aI6709
aI7136
aI7160
aI7140
as.