(dp1
I2352
(lp2
(lp3
I2354
aF1
aa(lp4
I2355
aF0.75
aasI7633
(lp5
(lp6
I2355
aF0.75
aa(lp7
I2352
aF1
aasI2354
(lp8
(lp9
I2354
aF1
aa(lp10
I2355
aF1
aa(lp11
I2352
aF1
aa(lp12
I2355
aF0.75
aa(lp13
I2352
aF1
aasI2355
(lp14
(lp15
I2354
aF1
aa(lp16
I2352
aF1
aasI-1
(lp17
I7632
aI7635
aI2534
aI10045
aI3691
aI7507
aI2184
aI10044
aI7634
aI2538
aI8729
aI9012
aI2379
aI2410
aI2376
aI794
aI7537
aI2422
aI1481
aI792
aI7427
as.