(dp1
I2377
(lp2
(lp3
I2383
aF0.59999999999999998
aasI2380
(lp4
(lp5
I2380
aF1
aa(lp6
I2382
aF1
aa(lp7
I2383
aF1
aa(lp8
I2382
aF0.75
aa(lp9
I2383
aF0.59999999999999998
aasI2382
(lp10
(lp11
I2380
aF1
aa(lp12
I2383
aF0.59999999999999998
aasI2383
(lp13
(lp14
I2380
aF1
aa(lp15
I2382
aF0.75
aasI2333
(lp16
(lp17
I2382
aF0.75
aasI-1
(lp18
I2379
aI2376
aI1481
aI2356
aI2378
aI2518
aI2334
aI2358
aI2516
aI2538
aI2357
aI2418
aI2422
aI2487
aI2332
aI7632
aI10199
aI7635
aI9576
aI2532
as.