(dp1
I2384
(lp2
(lp3
I2387
aF0.75
aa(lp4
I2385
aF1
aasI2385
(lp5
(lp6
I2386
aF1
aa(lp7
I2387
aF0.75
aasI2386
(lp8
(lp9
I2386
aF1
aa(lp10
I2387
aF1
aa(lp11
I2385
aF1
aa(lp12
I2387
aF0.75
aa(lp13
I2385
aF1
aasI2387
(lp14
(lp15
I2386
aF1
aa(lp16
I2385
aF1
aasI-1
(lp17
I8462
aI2395
aI41
aI7692
aI8127
aI5003
aI2391
aI9974
aI629
aI8014
aI2392
aI6377
aI2389
aI8423
aI4947
aI7389
aI6127
aI4918
aI43
aI4945
aI631
as.