(dp1
I2384
(lp2
(lp3
I2386
aF0.5
aasI2386
(lp4
(lp5
I2392
aF1
aa(lp6
I2393
aF0.80000000000000004
aa(lp7
I2387
aF0.80000000000000004
aasI2387
(lp8
(lp9
I2392
aF1
aa(lp10
I2393
aF0.80000000000000004
aa(lp11
I2386
aF0.5
aa(lp12
I2395
aF0.66666666666666663
aasI2392
(lp13
(lp14
I2392
aF1
aa(lp15
I2393
aF1
aa(lp16
I2387
aF1
aa(lp17
I2386
aF1
aa(lp18
I2395
aF1
aa(lp19
I2393
aF0.80000000000000004
aa(lp20
I2387
aF0.80000000000000004
aa(lp21
I2386
aF0.5
aa(lp22
I2395
aF0.66666666666666663
aasI2393
(lp23
(lp24
I2392
aF1
aa(lp25
I2387
aF0.80000000000000004
aa(lp26
I2395
aF0.66666666666666663
aasI2395
(lp27
(lp28
I2392
aF1
aasI-1
(lp29
I4190
aI9143
aI2385
aI4191
aI4188
aI4165
aI4189
aI4283
aI4281
aI2391
aI4280
aI4184
aI4185
aI4282
aI9140
aI4149
aI4146
aI4145
aI4187
as.