(dp1
I8423
(lp2
(lp3
I2395
aF1
aa(lp4
I7692
aF0.375
aasI42
(lp5
(lp6
I2394
aF0.42857142857142855
aasI7692
(lp7
(lp8
I2395
aF1
aa(lp9
I8423
aF0.33333333333333331
aasI8462
(lp10
(lp11
I7692
aF0.375
aasI8533
(lp12
(lp13
I8423
aF0.33333333333333331
aasI2392
(lp14
(lp15
I2393
aF0.5
aa(lp16
I2394
aF0.42857142857142855
aasI2393
(lp17
(lp18
I2395
aF1
aasI2394
(lp19
(lp20
I2395
aF1
aa(lp21
I2393
aF0.5
aasI2395
(lp22
(lp23
I2395
aF1
aa(lp24
I2393
aF1
aa(lp25
I2394
aF1
aa(lp26
I7692
aF1
aa(lp27
I8423
aF1
aa(lp28
I2393
aF0.5
aa(lp29
I2394
aF0.42857142857142855
aa(lp30
I7692
aF0.375
aa(lp31
I8423
aF0.33333333333333331
aasI-1
(lp32
I8127
aI6376
aI2386
aI2313
aI2387
aI6961
aI6125
aI8580
aI6124
aI2384
aI43
aI41
aI5003
aI8528
aI9974
aI7389
aI6127
as.