(dp1
I2416
(lp2
(lp3
I2419
aF1
aa(lp4
I2417
aF0.80000000000000004
aasI2417
(lp5
(lp6
I2419
aF1
aa(lp7
I2416
aF1
aa(lp8
I2418
aF0.59999999999999998
aasI2418
(lp9
(lp10
I2419
aF1
aa(lp11
I2416
aF1
aa(lp12
I2417
aF0.80000000000000004
aasI2419
(lp13
(lp14
I2419
aF1
aa(lp15
I2416
aF1
aa(lp16
I2418
aF1
aa(lp17
I2417
aF1
aa(lp18
I2416
aF1
aa(lp19
I2418
aF0.59999999999999998
aa(lp20
I2417
aF0.80000000000000004
aasI2457
(lp21
(lp22
I2418
aF0.59999999999999998
aasI-1
(lp23
I4131
aI2462
aI1799
aI1471
aI4229
aI1606
aI2356
aI4908
aI1607
aI2455
aI1605
aI3296
aI4128
aI6610
aI8196
aI1470
aI1661
aI733
aI6615
aI5928
aI9991
as.