(dp1
I2441
(lp2
(lp3
I2442
aF0.40000000000000002
aasI2442
(lp4
(lp5
I2443
aF1
aasI2443
(lp6
(lp7
I2443
aF1
aa(lp8
I2442
aF1
aa(lp9
I2431
aF1
aa(lp10
I2442
aF0.40000000000000002
aasI2429
(lp11
(lp12
I2442
aF0.40000000000000002
aasI-1
(lp13
I2439
aI2435
aI2501
aI2440
aI2430
aI3105
aI2495
aI2473
aI3107
aI5466
aI2517
aI7400
aI5467
aI3106
aI2522
aI2523
aI812
aI7401
aI2502
aI814
asI2431
(lp14
(lp15
I2443
aF1
aas.