(dp1
I844
(lp2
(lp3
I247
aF0.40000000000000002
aasI244
(lp4
(lp5
I245
aF1
aasI245
(lp6
(lp7
I245
aF1
aa(lp8
I247
aF1
aa(lp9
I244
aF1
aa(lp10
I247
aF0.40000000000000002
aasI246
(lp11
(lp12
I247
aF0.40000000000000002
aasI247
(lp13
(lp14
I245
aF1
aasI-1
(lp15
I846
aI6282
aI6281
aI9407
aI6280
aI6283
aI5994
aI6021
aI10148
aI6295
aI6092
aI8886
aI8879
aI6093
aI8885
aI5995
aI242
aI5402
aI5993
aI10146
as.