(dp1
I2451
(lp2
(lp3
I2451
aF1
aasI-1
(lp4
I2507
aI2478
aI2448
aI2490
aI2437
aI2491
aI2525
aI2506
aI2342
aI2438
aI2504
aI2537
aI2413
aI2396
aI2874
aI2510
aI2529
aI2141
aI2505
aI2397
aI2450
aI2414
aI2508
aI2527
as.