(dp1
I3651
(lp2
(lp3
I2475
aF0.75
aasI2475
(lp4
(lp5
I2476
aF1
aa(lp6
I2467
aF0.59999999999999998
aasI2476
(lp7
(lp8
I2476
aF1
aa(lp9
I2475
aF1
aa(lp10
I2467
aF1
aa(lp11
I2475
aF0.75
aa(lp12
I2467
aF0.59999999999999998
aasI2467
(lp13
(lp14
I2476
aF1
aa(lp15
I2475
aF0.75
aasI3705
(lp16
(lp17
I2467
aF0.59999999999999998
aasI-1
(lp18
I3796
aI3798
aI3799
aI3640
aI2674
aI215
aI2462
aI4414
aI3639
aI4413
aI3694
aI6650
aI3797
aI213
aI2619
aI2568
aI2753
aI6649
aI6651
aI4203
aI3636
as.