(dp1
I2466
(lp2
(lp3
I2505
aF0.42857142857142855
aasI2437
(lp4
(lp5
I2507
aF1
aa(lp6
I2504
aF0.66666666666666663
aasI2504
(lp7
(lp8
I2507
aF1
aa(lp9
I2505
aF0.42857142857142855
aasI2505
(lp10
(lp11
I2507
aF1
aa(lp12
I2504
aF0.66666666666666663
aasI2506
(lp13
(lp14
I2507
aF1
aasI2507
(lp15
(lp16
I2507
aF1
aa(lp17
I2504
aF1
aa(lp18
I2506
aF1
aa(lp19
I2437
aF1
aa(lp20
I2451
aF1
aa(lp21
I2505
aF1
aa(lp22
I2504
aF0.66666666666666663
aa(lp23
I2505
aF0.42857142857142855
aasI2451
(lp24
(lp25
I2507
aF1
aasI-1
(lp26
I2490
aI2478
aI2491
aI2525
aI2529
aI2511
aI2396
aI2489
aI2438
aI2508
aI2488
aI2874
aI2510
aI2477
aI2821
aI2397
aI2791
aI2528
as.