(dp1
I2537
(lp2
(lp3
I2538
aF1
aasI2538
(lp4
(lp5
I2538
aF1
aa(lp6
I2537
aF1
aa(lp7
I2539
aF1
aa(lp8
I2537
aF0.40000000000000002
aasI2539
(lp9
(lp10
I2538
aF1
aasI2320
(lp11
(lp12
I2537
aF0.40000000000000002
aasI2359
(lp13
(lp14
I2537
aF0.40000000000000002
aasI-1
(lp15
I7144
aI7148
aI7147
aI7137
aI7128
aI7096
aI7150
aI4780
aI7083
aI2323
aI7005
aI6808
aI7116
aI8239
aI7422
aI7099
aI7022
aI7140
aI7179
aI7042
aI7421
as.