(dp1
I6561
(lp2
(lp3
I2547
aF0.33333333333333331
aasI6152
(lp4
(lp5
I2547
aF0.33333333333333331
aasI2540
(lp6
(lp7
I2544
aF0.42857142857142855
aasI2544
(lp8
(lp9
I2546
aF1
aa(lp10
I2545
aF1
aasI2545
(lp11
(lp12
I2546
aF1
aa(lp13
I2544
aF0.42857142857142855
aasI2546
(lp14
(lp15
I2546
aF1
aa(lp16
I2545
aF1
aa(lp17
I2547
aF1
aa(lp18
I2544
aF1
aa(lp19
I2545
aF1
aa(lp20
I2547
aF0.33333333333333331
aa(lp21
I2544
aF0.42857142857142855
aasI2547
(lp22
(lp23
I2546
aF1
aa(lp24
I2545
aF1
aasI-1
(lp25
I2644
aI2673
aI2645
aI2737
aI2748
aI2675
aI2750
aI2587
aI2674
aI2646
aI2636
aI2915
aI2670
aI2672
aI2656
aI2751
aI9201
aI9479
aI9477
aI2853
aI2791
as.