(dp1
I2587
(lp2
(lp3
I2553
aF1
aa(lp4
I2555
aF0.59999999999999998
aasI2853
(lp5
(lp6
I2587
aF0.5
aasI2664
(lp7
(lp8
I2553
aF1
aasI2899
(lp9
(lp10
I2555
aF0.59999999999999998
aasI2553
(lp11
(lp12
I2553
aF1
aa(lp13
I2555
aF1
aa(lp14
I2664
aF1
aa(lp15
I2587
aF1
aa(lp16
I2555
aF0.59999999999999998
aa(lp17
I2587
aF0.5
aasI2555
(lp18
(lp19
I2553
aF1
aa(lp20
I2587
aF0.5
aasI-1
(lp21
I2620
aI2570
aI2834
aI2609
aI2621
aI2611
aI2932
aI2914
aI2665
aI2629
aI2818
aI2593
aI2557
aI2569
aI1056
aI2579
aI2670
aI2706
aI1216
aI2810
as.