(dp1
I2617
(lp2
(lp3
I2575
aF0.5
aasI-1
(lp4
I2560
aI2569
aI2661
aI2570
aI2557
aI2559
aI2660
aI2576
aI2579
aI2614
aI2625
aI2613
aI2552
aI2843
aI2693
aI2566
aI498
aI2665
aI2602
aI2702
aI2812
asI2573
(lp5
(lp6
I2573
aF1
aa(lp7
I2575
aF1
aa(lp8
I2575
aF0.5
aasI2662
(lp9
(lp10
I2575
aF0.5
aasI2575
(lp11
(lp12
I2573
aF1
aas.