(dp1
I2600
(lp2
(lp3
I2600
aF1
aa(lp4
I2601
aF1
aa(lp5
I2591
aF1
aa(lp6
I2599
aF1
aa(lp7
I2601
aF1
aa(lp8
I2591
aF1
aa(lp9
I2599
aF1
aasI2601
(lp10
(lp11
I2600
aF1
aa(lp12
I2591
aF1
aa(lp13
I2599
aF1
aasI2599
(lp14
(lp15
I2600
aF1
aa(lp16
I2601
aF1
aa(lp17
I2591
aF1
aasI-1
(lp18
I2578
aI2563
aI2616
aI2626
aI7807
aI2592
aI2558
aI843
aI825
aI7804
aI893
aI826
aI856
aI841
aI857
aI859
aI2623
aI2562
aI892
aI842
aI858
asI2591
(lp19
(lp20
I2600
aF1
aa(lp21
I2601
aF1
aa(lp22
I2599
aF1
aas.