(dp1
I9785
(lp2
(lp3
I2676
aF0.5
aasI2682
(lp4
(lp5
I2676
aF0.5
aasI2676
(lp6
(lp7
I2677
aF1
aasI2677
(lp8
(lp9
I2677
aF1
aa(lp10
I2676
aF1
aa(lp11
I2676
aF0.5
aasI-1
(lp12
I2760
aI2893
aI2690
aI2889
aI2785
aI2685
aI2777
aI2766
aI9272
aI2701
aI9262
aI9261
aI9889
aI9263
aI9260
aI744
aI9786
aI9835
aI747
aI2769
aI9358
as.