(dp1
I2688
(lp2
(lp3
I2691
aF1
aasI2761
(lp4
(lp5
I2688
aF0.5
aasI2691
(lp6
(lp7
I2691
aF1
aa(lp8
I2688
aF1
aa(lp9
I2688
aF0.5
aasI-1
(lp10
I2768
aI2771
aI2776
aI6919
aI6918
aI3061
aI2716
aI2699
aI8762
aI3060
aI3095
aI2850
aI2609
aI3093
aI2772
aI2817
aI3062
aI3094
aI2825
aI2890
aI3746
aI2767
asI2619
(lp11
(lp12
I2688
aF0.5
aas.