(dp1
I2766
(lp2
(lp3
I2685
aF0.59999999999999998
aasI2676
(lp4
(lp5
I2682
aF0.75
aasI2710
(lp6
(lp7
I2710
aF1
aa(lp8
I2682
aF1
aa(lp9
I2685
aF1
aa(lp10
I2682
aF0.75
aa(lp11
I2685
aF0.59999999999999998
aasI2682
(lp12
(lp13
I2710
aF1
aa(lp14
I2685
aF0.59999999999999998
aasI2685
(lp15
(lp16
I2710
aF1
aa(lp17
I2682
aF0.75
aasI-1
(lp18
I2667
aI2717
aI137
aI2777
aI2760
aI2690
aI2554
aI2785
aI138
aI2799
aI2774
aI2704
aI2668
aI2769
aI2703
aI139
aI2823
aI2929
aI2893
aI2911
aI3409
as.