(dp1
I2761
(lp2
(lp3
I2716
aF0.40000000000000002
aasI2768
(lp4
(lp5
I2716
aF0.40000000000000002
aasI2678
(lp6
(lp7
I2719
aF1
aasI2716
(lp8
(lp9
I2719
aF1
aasI-1
(lp10
I2679
aI2771
aI2767
aI2779
aI2756
aI2772
aI2764
aI2742
aI2711
aI2775
aI2918
aI2700
aI2740
aI2720
aI2683
aI2917
aI2826
aI2688
aI2663
aI2903
asI2719
(lp11
(lp12
I2719
aF1
aa(lp13
I2716
aF1
aa(lp14
I2678
aF1
aa(lp15
I2716
aF0.40000000000000002
aas.