(dp1
I2764
(lp2
(lp3
I2742
aF0.59999999999999998
aasI2739
(lp4
(lp5
I2743
aF0.5
aasI2740
(lp6
(lp7
I2741
aF1
aa(lp8
I2742
aF0.59999999999999998
aasI2741
(lp9
(lp10
I2741
aF1
aa(lp11
I2740
aF1
aa(lp12
I2742
aF1
aa(lp13
I2743
aF1
aa(lp14
I2740
aF1
aa(lp15
I2742
aF0.59999999999999998
aa(lp16
I2743
aF0.5
aasI2742
(lp17
(lp18
I2741
aF1
aa(lp19
I2740
aF1
aa(lp20
I2743
aF0.5
aasI2743
(lp21
(lp22
I2741
aF1
aa(lp23
I2740
aF1
aasI-1
(lp24
I2787
aI2750
aI2925
aI2926
aI2914
aI2540
aI2732
aI2877
aI2788
aI2791
aI2780
aI2711
aI2746
aI2747
aI2738
aI8760
aI2826
aI2737
aI2767
as.