(dp1
I2757
(lp2
(lp3
I2758
aF1
aa(lp4
I2543
aF0.5
aa(lp5
I2773
aF0.66666666666666663
aasI2758
(lp6
(lp7
I2758
aF1
aa(lp8
I2757
aF1
aa(lp9
I2543
aF1
aa(lp10
I2773
aF1
aa(lp11
I2757
aF0.59999999999999998
aa(lp12
I2543
aF0.5
aa(lp13
I2773
aF0.66666666666666663
aasI2762
(lp14
(lp15
I2757
aF0.59999999999999998
aasI2543
(lp16
(lp17
I2758
aF1
aa(lp18
I2757
aF0.59999999999999998
aa(lp19
I2773
aF0.66666666666666663
aasI2770
(lp20
(lp21
I2543
aF0.5
aasI2773
(lp22
(lp23
I2758
aF1
aasI-1
(lp24
I2765
aI2681
aI2706
aI2548
aI2738
aI2718
aI2914
aI2670
aI2551
aI2647
aI8480
aI7366
aI2613
aI2780
aI2737
aI2739
aI2786
aI2637
aI8151
as.