(dp1
I2947
(lp2
(lp3
I2765
aF1
aasI2762
(lp4
(lp5
I2770
aF0.40000000000000002
aasI2765
(lp6
(lp7
I2765
aF1
aa(lp8
I2770
aF1
aa(lp9
I2947
aF1
aa(lp10
I2770
aF0.40000000000000002
aasI2543
(lp11
(lp12
I2770
aF0.40000000000000002
aasI2770
(lp13
(lp14
I2765
aF1
aasI-1
(lp15
I2757
aI8155
aI2933
aI2706
aI2665
aI2758
aI2718
aI2915
aI8158
aI2898
aI2544
aI8481
aI2548
aI2914
aI8151
aI8147
aI8480
aI2773
aI8483
aI2681
as.