(dp1
I2768
(lp2
(lp3
I2772
aF0.5
aasI2756
(lp4
(lp5
I2772
aF0.5
aasI2772
(lp6
(lp7
I2775
aF1
aasI-1
(lp8
I2771
aI2779
aI2776
aI2862
aI2767
aI2850
aI2826
aI2761
aI2918
aI2716
aI2683
aI2764
aI2740
aI2679
aI2784
aI2719
aI2825
aI2802
aI2711
aI2700
aI2950
asI2775
(lp9
(lp10
I2775
aF1
aa(lp11
I2772
aF1
aa(lp12
I2772
aF0.5
aas.