(dp1
I2788
(lp2
(lp3
I2865
aF0.40000000000000002
aasI2865
(lp4
(lp5
I2814
aF1
aasI2814
(lp6
(lp7
I2814
aF1
aa(lp8
I2865
aF1
aa(lp9
I2813
aF1
aa(lp10
I2865
aF0.40000000000000002
aasI2910
(lp11
(lp12
I2865
aF0.40000000000000002
aasI2813
(lp13
(lp14
I2814
aF1
aasI-1
(lp15
I2849
aI2896
aI2926
aI2791
aI2927
aI2874
aI2931
aI2945
aI2891
aI2809
aI2846
aI2711
aI2705
aI2764
aI2890
aI2873
aI2780
aI2743
aI2822
aI2732
as.