(dp1
I2860
(lp2
(lp3
I2860
aF1
aa(lp4
I2861
aF1
aa(lp5
I2863
aF1
aa(lp6
I2861
aF0.75
aa(lp7
I2863
aF0.59999999999999998
aasI2861
(lp8
(lp9
I2860
aF1
aa(lp10
I2863
aF0.59999999999999998
aasI2862
(lp11
(lp12
I2861
aF0.75
aasI2927
(lp13
(lp14
I2863
aF0.59999999999999998
aasI2863
(lp15
(lp16
I2860
aF1
aa(lp17
I2861
aF0.75
aasI-1
(lp18
I2798
aI2939
aI2831
aI2836
aI2794
aI2924
aI3872
aI2880
aI2847
aI2840
aI2919
aI2828
aI2029
aI2844
aI5882
aI2857
aI2872
aI4584
aI10166
aI2879
aI2816
aI4105
as.