(dp1
I2681
(lp2
(lp3
I2868
aF0.5
aasI2803
(lp4
(lp5
I2868
aF0.5
aasI2868
(lp6
(lp7
I2879
aF1
aasI-1
(lp8
I2876
aI1322
aI1207
aI2622
aI1206
aI2570
aI1114
aI1323
aI2884
aI2569
aI1088
aI1112
aI1320
aI1113
aI3303
aI1022
aI3302
aI1220
aI2579
aI1223
aI1115
aI2557
asI2879
(lp9
(lp10
I2879
aF1
aa(lp11
I2868
aF1
aa(lp12
I2868
aF0.5
aas.