(dp1
I2880
(lp2
(lp3
I2880
aF1
aa(lp4
I2883
aF1
aa(lp5
I2883
aF0.5
aasI2883
(lp6
(lp7
I2880
aF1
aasI3645
(lp8
(lp9
I2883
aF0.5
aasI-1
(lp10
I2844
aI2686
aI3646
aI3117
aI9536
aI3756
aI3631
aI3510
aI1132
aI8555
aI8553
aI3758
aI917
aI2709
aI2186
aI3629
aI3509
aI2916
aI2828
aI2876
aI6340
asI3647
(lp11
(lp12
I2883
aF0.5
aas.