(dp1
I2888
(lp2
(lp3
I2890
aF0.59999999999999998
aasI2889
(lp4
(lp5
I2889
aF1
aa(lp6
I2890
aF1
aa(lp7
I2891
aF1
aa(lp8
I2865
aF1
aa(lp9
I2890
aF0.59999999999999998
aa(lp10
I2891
aF0.5
aasI2890
(lp11
(lp12
I2889
aF1
aa(lp13
I2891
aF0.5
aasI2891
(lp14
(lp15
I2889
aF1
aa(lp16
I2890
aF0.59999999999999998
aasI2865
(lp17
(lp18
I2889
aF1
aasI2810
(lp19
(lp20
I2891
aF0.5
aasI-1
(lp21
I2781
aI2922
aI2808
aI2911
aI2818
aI2789
aI2875
aI2809
aI2857
aI2791
aI2846
aI2899
aI2879
aI2927
aI2906
aI2864
aI2921
aI2915
aI2581
aI2790
as.