(dp1
I2916
(lp2
(lp3
I2916
aF1
aa(lp4
I2919
aF1
aa(lp5
I2924
aF1
aa(lp6
I2919
aF0.40000000000000002
aasI2917
(lp7
(lp8
I2919
aF0.40000000000000002
aasI2918
(lp9
(lp10
I2919
aF0.40000000000000002
aasI2919
(lp11
(lp12
I2916
aF1
aasI2924
(lp13
(lp14
I2916
aF1
aasI-1
(lp15
I3553
aI9980
aI3554
aI5794
aI8221
aI5793
aI9982
aI4933
aI5799
aI5795
aI4987
aI4307
aI772
aI3872
aI450
aI8220
aI10005
aI775
aI7135
aI5792
aI8222
aI3552
as.