(dp1
I2816
(lp2
(lp3
I2871
aF0.5
aasI2871
(lp4
(lp5
I2919
aF1
aasI-1
(lp6
I2893
aI2800
aI2863
aI2847
aI2951
aI140
aI1789
aI2823
aI1788
aI2937
aI5759
aI2777
aI1790
aI142
aI860
aI2774
aI4022
aI2793
aI4549
aI143
aI2710
asI5758
(lp7
(lp8
I2871
aF0.5
aasI2919
(lp9
(lp10
I2919
aF1
aa(lp11
I2871
aF1
aa(lp12
I2871
aF0.5
aas.