(dp1
I2916
(lp2
(lp3
I2919
aF1
aasI2917
(lp4
(lp5
I2919
aF1
aa(lp6
I2918
aF0.5
aasI2918
(lp7
(lp8
I2919
aF1
aa(lp9
I2917
aF0.59999999999999998
aasI2919
(lp10
(lp11
I2919
aF1
aa(lp12
I2917
aF1
aa(lp13
I2918
aF1
aa(lp14
I2916
aF1
aa(lp15
I2917
aF0.59999999999999998
aa(lp16
I2918
aF0.5
aasI2795
(lp17
(lp18
I2917
aF0.59999999999999998
aasI8753
(lp19
(lp20
I2918
aF0.5
aasI-1
(lp21
I2880
aI10164
aI6004
aI10131
aI7660
aI5709
aI2549
aI4900
aI2924
aI5881
aI4938
aI2847
aI2860
aI2840
aI5468
aI10130
aI5812
aI4808
aI8365
aI1377
aI8366
as.