(dp1
I2989
(lp2
(lp3
I2960
aF1
aasI2990
(lp4
(lp5
I2961
aF0.33333333333333331
aa(lp6
I2989
aF0.42857142857142855
aasI2960
(lp7
(lp8
I2960
aF1
aa(lp9
I2961
aF1
aa(lp10
I7581
aF1
aa(lp11
I2989
aF1
aa(lp12
I2961
aF0.33333333333333331
aa(lp13
I2989
aF0.42857142857142855
aasI2961
(lp14
(lp15
I2960
aF1
aasI6968
(lp16
(lp17
I2961
aF0.33333333333333331
aasI2969
(lp18
(lp19
I2989
aF0.42857142857142855
aasI7581
(lp20
(lp21
I2960
aF1
aasI-1
(lp22
I7422
aI7580
aI6100
aI6102
aI5360
aI2985
aI2968
aI336
aI2984
aI889
aI5932
aI8626
aI7585
aI890
aI7736
aI979
aI6089
aI2170
aI7420
as.