(dp1
I297
(lp2
(lp3
I297
aF1
aa(lp4
I299
aF1
aa(lp5
I298
aF1
aa(lp6
I299
aF0.75
aa(lp7
I298
aF0.59999999999999998
aasI298
(lp8
(lp9
I297
aF1
aa(lp10
I299
aF0.75
aasI299
(lp11
(lp12
I297
aF1
aa(lp13
I298
aF0.59999999999999998
aasI6940
(lp14
(lp15
I299
aF0.75
aasI6941
(lp16
(lp17
I298
aF0.59999999999999998
aasI-1
(lp18
I6942
aI7097
aI7736
aI301
aI7096
aI226
aI537
aI2994
aI539
aI7091
aI7128
aI224
aI3336
aI6819
aI3369
aI227
aI538
aI2036
aI3818
aI192
aI6844
as.