(dp1
I296
(lp2
(lp3
I298
aF1
aa(lp4
I297
aF1
aa(lp5
I299
aF1
aasI297
(lp6
(lp7
I298
aF1
aa(lp8
I299
aF1
aa(lp9
I296
aF0.59999999999999998
aasI298
(lp10
(lp11
I298
aF1
aa(lp12
I297
aF1
aa(lp13
I299
aF1
aa(lp14
I296
aF1
aa(lp15
I297
aF1
aa(lp16
I299
aF1
aa(lp17
I296
aF0.59999999999999998
aasI299
(lp18
(lp19
I298
aF1
aa(lp20
I297
aF1
aasI6844
(lp21
(lp22
I296
aF0.59999999999999998
aasI-1
(lp23
I4755
aI4752
aI5345
aI3843
aI8997
aI1161
aI5381
aI1174
aI1067
aI9597
aI1172
aI1066
aI6851
aI1224
aI6788
aI4594
aI4753
aI1930
aI1283
aI5344
as.