(dp1
I2984
(lp2
(lp3
I2985
aF0.5
aasI2985
(lp4
(lp5
I2996
aF1
aasI2986
(lp6
(lp7
I2985
aF0.5
aasI2996
(lp8
(lp9
I2996
aF1
aa(lp10
I2985
aF1
aa(lp11
I2985
aF0.5
aasI-1
(lp12
I7581
aI7556
aI7422
aI2999
aI7580
aI231
aI7585
aI345
aI6938
aI828
aI2960
aI3505
aI3540
aI3536
aI93
aI229
aI228
aI9414
aI7557
aI8646
aI6970
aI830
as.