(dp1
I3078
(lp2
(lp3
I3005
aF0.40000000000000002
aasI3006
(lp4
(lp5
I3007
aF1
aasI3004
(lp6
(lp7
I3005
aF0.40000000000000002
aasI3005
(lp8
(lp9
I3007
aF1
aasI-1
(lp10
I3076
aI3000
aI3079
aI2165
aI3001
aI2979
aI3021
aI8091
aI8389
aI3080
aI8097
aI8396
aI8075
aI3023
aI7560
aI1335
aI8391
aI8088
aI8388
aI8089
asI3007
(lp11
(lp12
I3007
aF1
aa(lp13
I3005
aF1
aa(lp14
I3006
aF1
aa(lp15
I3005
aF0.40000000000000002
aas.