(dp1
I3016
(lp2
(lp3
I3016
aF1
aa(lp4
I3018
aF1
aa(lp5
I3019
aF1
aa(lp6
I9069
aF1
aa(lp7
I3018
aF0.59999999999999998
aa(lp8
I3019
aF0.80000000000000004
aasI3017
(lp9
(lp10
I3018
aF0.59999999999999998
aa(lp11
I3019
aF0.80000000000000004
aasI3018
(lp12
(lp13
I3016
aF1
aa(lp14
I3019
aF0.80000000000000004
aasI3019
(lp15
(lp16
I3016
aF1
aa(lp17
I3018
aF0.59999999999999998
aasI9069
(lp18
(lp19
I3016
aF1
aasI-1
(lp20
I1244
aI1443
aI1441
aI7489
aI1440
aI4778
aI1442
aI1946
aI1356
aI1245
aI1366
aI2371
aI1324
aI2369
aI1004
aI3810
aI1367
aI1434
aI1433
aI7431
as.