(dp1
I3016
(lp2
(lp3
I3019
aF0.75
aa(lp4
I3018
aF1
aasI3017
(lp5
(lp6
I3017
aF1
aa(lp7
I3019
aF1
aa(lp8
I3018
aF1
aa(lp9
I3019
aF0.75
aa(lp10
I3018
aF1
aasI3018
(lp11
(lp12
I3017
aF1
aa(lp13
I3019
aF0.75
aasI3019
(lp14
(lp15
I3017
aF1
aa(lp16
I3018
aF1
aasI-1
(lp17
I3001
aI3000
aI2976
aI6223
aI2977
aI3300
aI6222
aI3808
aI3003
aI2851
aI1335
aI3077
aI3709
aI2789
aI3006
aI3306
aI6221
aI6220
aI3726
aI7560
aI3766
as.