(dp1
I-1
(lp2
I8127
aI3481
aI3480
aI5583
aI3494
aI3613
aI8533
aI5580
aI7692
aI5582
aI8583
aI8144
aI3027
aI3101
aI8442
aI11
aI9544
aI3026
aI3054
aI8580
aI3497
asI3020
(lp3
(lp4
I3022
aF0.75
aa(lp5
I3023
aF1
aasI3021
(lp6
(lp7
I3021
aF1
aa(lp8
I3022
aF1
aa(lp9
I3023
aF1
aa(lp10
I3022
aF0.75
aa(lp11
I3023
aF1
aasI3022
(lp12
(lp13
I3021
aF1
aa(lp14
I3023
aF1
aasI3023
(lp15
(lp16
I3021
aF1
aa(lp17
I3022
aF0.75
aas.