(dp1
I300
(lp2
(lp3
I301
aF0.59999999999999998
aasI301
(lp4
(lp5
I303
aF1
aa(lp6
I302
aF0.75
aasI302
(lp7
(lp8
I303
aF1
aa(lp9
I301
aF0.59999999999999998
aasI303
(lp10
(lp11
I303
aF1
aa(lp12
I302
aF1
aa(lp13
I301
aF1
aa(lp14
I302
aF0.75
aa(lp15
I301
aF0.59999999999999998
aasI823
(lp16
(lp17
I302
aF0.75
aasI-1
(lp18
I1687
aI5810
aI10148
aI2564
aI1685
aI1684
aI6452
aI5597
aI3792
aI6454
aI10151
aI6455
aI5598
aI5809
aI2552
aI5599
aI3108
aI8640
aI853
aI5596
aI10156
aI2553
as.