(dp1
I3080
(lp2
(lp3
I3081
aF1
aa(lp4
I3082
aF0.75
aasI3081
(lp5
(lp6
I3081
aF1
aa(lp7
I3082
aF1
aa(lp8
I3080
aF1
aa(lp9
I3082
aF0.75
aa(lp10
I3080
aF0.59999999999999998
aasI3082
(lp11
(lp12
I3081
aF1
aa(lp13
I3080
aF0.59999999999999998
aasI3021
(lp14
(lp15
I3080
aF0.59999999999999998
aasI3022
(lp16
(lp17
I3082
aF0.75
aasI-1
(lp18
I3023
aI3079
aI3078
aI3112
aI3027
aI3067
aI3076
aI3083
aI3026
aI3130
aI9544
aI3632
aI3005
aI3633
aI9503
aI3004
aI3635
aI9507
aI9546
aI3046
as.