(dp1
I3108
(lp2
(lp3
I3110
aF1
aa(lp4
I3109
aF0.59999999999999998
aasI3109
(lp5
(lp6
I3110
aF1
aa(lp7
I3108
aF0.75
aasI3110
(lp8
(lp9
I3110
aF1
aa(lp10
I3108
aF1
aa(lp11
I3109
aF1
aa(lp12
I3108
aF0.75
aa(lp13
I3109
aF0.59999999999999998
aasI3111
(lp14
(lp15
I3109
aF0.59999999999999998
aasI3057
(lp16
(lp17
I3108
aF0.75
aasI-1
(lp18
I8386
aI8385
aI8384
aI8387
aI8049
aI8051
aI8011
aI3060
aI8021
aI6863
aI8048
aI8022
aI8020
aI3009
aI3069
aI8109
aI8025
aI8024
aI8050
aI1898
as.