(dp1
I9444
(lp2
(lp3
I3167
aF0.33333333333333331
aasI8396
(lp4
(lp5
I3166
aF0.75
aasI-1
(lp6
I3248
aI3250
aI8017
aI6333
aI3246
aI3224
aI5358
aI3190
aI3226
aI8065
aI3209
aI8019
aI8398
aI3188
aI6761
aI8064
aI3251
aI8397
aI3206
aI8086
asI3164
(lp7
(lp8
I3167
aF0.33333333333333331
aasI3165
(lp9
(lp10
I3165
aF1
aa(lp11
I3166
aF1
aa(lp12
I3167
aF1
aa(lp13
I3166
aF0.75
aa(lp14
I3167
aF0.33333333333333331
aasI3166
(lp15
(lp16
I3165
aF1
aasI3167
(lp17
(lp18
I3165
aF1
aa(lp19
I3166
aF0.75
aas.