(dp1
I3166
(lp2
(lp3
I3167
aF1
aa(lp4
I3164
aF0.75
aasI3255
(lp5
(lp6
I3164
aF0.75
aasI3164
(lp7
(lp8
I3167
aF1
aa(lp9
I3166
aF0.59999999999999998
aasI3165
(lp10
(lp11
I3166
aF0.59999999999999998
aasI-1
(lp12
I3250
aI3249
aI3207
aI3248
aI3254
aI3205
aI3253
aI3251
aI3212
aI3223
aI3222
aI3206
aI3221
aI3252
aI3189
aI3220
aI3213
aI3214
aI3190
aI3204
asI3167
(lp13
(lp14
I3167
aF1
aa(lp15
I3164
aF1
aa(lp16
I3166
aF1
aa(lp17
I3164
aF0.75
aa(lp18
I3166
aF0.59999999999999998
aas.