(dp1
I3212
(lp2
(lp3
I3213
aF0.40000000000000002
aasI3213
(lp4
(lp5
I3214
aF1
aasI3214
(lp6
(lp7
I3214
aF1
aa(lp8
I3213
aF1
aa(lp9
I3191
aF1
aa(lp10
I3213
aF0.40000000000000002
aasI3251
(lp11
(lp12
I3213
aF0.40000000000000002
aasI3191
(lp13
(lp14
I3214
aF1
aasI-1
(lp15
I3221
aI3222
aI3189
aI3250
aI3190
aI3188
aI3249
aI3254
aI3207
aI3223
aI3204
aI3248
aI3165
aI3206
aI3166
aI3205
aI3220
aI3215
aI3255
aI3184
as.