(dp1
I3217
(lp2
(lp3
I3224
aF0.40000000000000002
aasI3224
(lp4
(lp5
I3226
aF1
aasI3225
(lp6
(lp7
I3224
aF0.40000000000000002
aasI3226
(lp8
(lp9
I3226
aF1
aa(lp10
I3224
aF1
aa(lp11
I3227
aF1
aa(lp12
I3224
aF0.40000000000000002
aasI3227
(lp13
(lp14
I3226
aF1
aasI-1
(lp15
I6527
aI3171
aI6414
aI6955
aI5303
aI4573
aI9455
aI3218
aI7524
aI8639
aI6445
aI5300
aI6572
aI5302
aI6947
aI3246
aI5301
aI6443
aI6574
aI6422
as.