(dp1
I1870
(lp2
(lp3
I3247
aF0.5
aasI3247
(lp4
(lp5
I3228
aF1
aasI-1
(lp6
I5359
aI8396
aI6727
aI1871
aI1868
aI1869
aI5356
aI3734
aI6726
aI7738
aI3245
aI8392
aI8064
aI3244
aI6763
aI3164
aI3226
aI1901
aI515
asI3228
(lp7
(lp8
I3228
aF1
aa(lp9
I3229
aF1
aa(lp10
I3230
aF1
aa(lp11
I3231
aF1
aa(lp12
I3247
aF1
aa(lp13
I3229
aF0.80000000000000004
aa(lp14
I3230
aF0.80000000000000004
aa(lp15
I3231
aF0.80000000000000004
aa(lp16
I3247
aF0.5
aasI3229
(lp17
(lp18
I3228
aF1
aa(lp19
I3230
aF0.80000000000000004
aa(lp20
I3231
aF0.80000000000000004
aasI3230
(lp21
(lp22
I3228
aF1
aa(lp23
I3229
aF0.80000000000000004
aa(lp24
I3231
aF0.80000000000000004
aa(lp25
I3247
aF0.5
aasI3231
(lp26
(lp27
I3228
aF1
aa(lp28
I3229
aF0.80000000000000004
aa(lp29
I3230
aF0.80000000000000004
aas.