(dp1
I3247
(lp2
(lp3
I3228
aF0.5
aasI3248
(lp4
(lp5
I3230
aF0.59999999999999998
aa(lp6
I3231
aF0.66666666666666663
aasI-1
(lp7
I3249
aI3255
aI3236
aI3252
aI3167
aI3254
aI3164
aI3188
aI3205
aI3253
aI3237
aI3250
aI3189
aI3166
aI3207
aI3185
aI3251
aI3165
aI3181
asI3228
(lp8
(lp9
I3229
aF1
aa(lp10
I3230
aF0.59999999999999998
aasI3229
(lp11
(lp12
I3229
aF1
aa(lp13
I3230
aF1
aa(lp14
I3228
aF1
aa(lp15
I3231
aF1
aa(lp16
I3230
aF0.59999999999999998
aa(lp17
I3228
aF0.5
aa(lp18
I3231
aF0.66666666666666663
aasI3230
(lp19
(lp20
I3229
aF1
aa(lp21
I3228
aF0.5
aa(lp22
I3231
aF0.66666666666666663
aasI3231
(lp23
(lp24
I3229
aF1
aas.