(dp1
I-1
(lp2
I3256
aI3257
aI3218
aI3258
aI6939
aI3232
aI3216
aI3193
aI3219
aI3183
aI3197
aI3235
aI3233
aI3234
aI3182
aI3247
aI3211
aI6831
aI3217
aI3192
aI3196
asI3259
(lp3
(lp4
I3246
aF0.75
aa(lp5
I3245
aF1
aasI3244
(lp6
(lp7
I3244
aF1
aa(lp8
I3246
aF1
aa(lp9
I3245
aF1
aa(lp10
I3246
aF0.75
aa(lp11
I3245
aF1
aasI3245
(lp12
(lp13
I3244
aF1
aa(lp14
I3246
aF0.75
aasI3246
(lp15
(lp16
I3244
aF1
aa(lp17
I3245
aF1
aas.