(dp1
I3244
(lp2
(lp3
I3244
aF1
aa(lp4
I3245
aF1
aa(lp5
I3246
aF1
aa(lp6
I3245
aF0.75
aa(lp7
I3246
aF0.59999999999999998
aasI3245
(lp8
(lp9
I3244
aF1
aa(lp10
I3246
aF0.59999999999999998
aasI3246
(lp11
(lp12
I3244
aF1
aa(lp13
I3245
aF0.75
aasI3247
(lp14
(lp15
I3245
aF0.75
aasI3224
(lp16
(lp17
I3246
aF0.59999999999999998
aasI-1
(lp18
I8396
aI3230
aI8397
aI7989
aI8096
aI9460
aI3229
aI8066
aI3250
aI5358
aI3191
aI3228
aI6760
aI5357
aI3231
aI8084
aI5356
aI3203
aI8067
aI9461
as.