(dp1
I3296
(lp2
(lp3
I3299
aF1
aa(lp4
I3297
aF0.80000000000000004
aa(lp5
I3298
aF0.80000000000000004
aasI3297
(lp6
(lp7
I3299
aF1
aa(lp8
I3298
aF0.80000000000000004
aa(lp9
I3296
aF0.80000000000000004
aasI3298
(lp10
(lp11
I3299
aF1
aa(lp12
I3297
aF0.80000000000000004
aa(lp13
I3296
aF0.80000000000000004
aasI3299
(lp14
(lp15
I3299
aF1
aa(lp16
I3297
aF1
aa(lp17
I3298
aF1
aa(lp18
I3296
aF1
aa(lp19
I3586
aF1
aa(lp20
I3297
aF0.80000000000000004
aa(lp21
I3298
aF0.80000000000000004
aa(lp22
I3296
aF0.80000000000000004
aasI3586
(lp23
(lp24
I3299
aF1
aasI-1
(lp25
I3893
aI3895
aI556
aI4847
aI4927
aI4374
aI3894
aI1799
aI4876
aI4835
aI4877
aI1797
aI5014
aI4919
aI4931
aI5013
aI3892
aI1565
aI4331
aI4924
as.