(dp1
I-1
(lp2
I338
aI336
aI511
aI337
aI339
aI960
aI1870
aI966
aI8193
aI510
aI8898
aI7581
aI7678
aI3349
aI6764
aI432
aI6143
aI515
aI3348
aI509
aI420
asI332
(lp3
(lp4
I332
aF1
aa(lp5
I334
aF1
aa(lp6
I333
aF1
aa(lp7
I335
aF1
aa(lp8
I334
aF1
aa(lp9
I333
aF1
aa(lp10
I335
aF1
aasI333
(lp11
(lp12
I332
aF1
aa(lp13
I334
aF1
aa(lp14
I335
aF1
aasI334
(lp15
(lp16
I332
aF1
aa(lp17
I333
aF1
aa(lp18
I335
aF1
aasI335
(lp19
(lp20
I332
aF1
aa(lp21
I334
aF1
aa(lp22
I333
aF1
aas.