(dp1
I3400
(lp2
(lp3
I3404
aF0.5
aasI115
(lp4
(lp5
I3404
aF0.5
aasI3404
(lp6
(lp7
I3406
aF1
aasI-1
(lp8
I3863
aI7726
aI7725
aI3875
aI7727
aI7724
aI2625
aI9378
aI3862
aI3422
aI3860
aI3861
aI3407
aI3402
aI774
aI212
aI772
aI112
aI8655
aI114
aI2717
asI3406
(lp9
(lp10
I3406
aF1
aa(lp11
I3404
aF1
aa(lp12
I3404
aF0.5
aas.