(dp1
I336
(lp2
(lp3
I347
aF0.59999999999999998
aasI340
(lp4
(lp5
I346
aF0.75
aasI345
(lp6
(lp7
I345
aF1
aa(lp8
I346
aF1
aa(lp9
I347
aF1
aa(lp10
I346
aF0.75
aa(lp11
I347
aF0.59999999999999998
aasI346
(lp12
(lp13
I345
aF1
aa(lp14
I347
aF0.59999999999999998
aasI347
(lp15
(lp16
I345
aF1
aa(lp17
I346
aF0.75
aasI-1
(lp18
I94
aI270
aI95
aI344
aI271
aI268
aI9495
aI9492
aI9494
aI92
aI3913
aI93
aI9493
aI7581
aI7580
aI3926
aI3924
aI537
aI7738
aI7582
as.