(dp1
I3612
(lp2
(lp3
I3461
aF0.75
aa(lp4
I3463
aF1
aasI3460
(lp5
(lp6
I3460
aF1
aa(lp7
I3461
aF1
aa(lp8
I3463
aF1
aa(lp9
I3461
aF0.75
aa(lp10
I3463
aF1
aasI3461
(lp11
(lp12
I3460
aF1
aa(lp13
I3463
aF1
aasI-1
(lp14
I3613
aI3614
aI3615
aI3529
aI3462
aI3560
aI3503
aI7022
aI7091
aI3479
aI7093
aI7088
aI7141
aI5483
aI7039
aI6819
aI3562
aI7144
aI7021
aI7147
aI4581
asI3463
(lp15
(lp16
I3460
aF1
aa(lp17
I3461
aF0.75
aas.