(dp1
I3464
(lp2
(lp3
I3464
aF1
aa(lp4
I3466
aF1
aa(lp5
I3466
aF0.5
aasI10009
(lp6
(lp7
I3466
aF0.5
aasI3466
(lp8
(lp9
I3464
aF1
aasI3467
(lp10
(lp11
I3466
aF0.5
aasI-1
(lp12
I3465
aI4600
aI4586
aI4916
aI4343
aI3565
aI3981
aI357
aI703
aI4584
aI6980
aI4375
aI9131
aI1962
aI1941
aI3979
aI4342
aI3850
aI3759
aI742
aI4603
aI546
as.