(dp1
I3486
(lp2
(lp3
I3486
aF1
aa(lp4
I3484
aF1
aa(lp5
I3485
aF1
aa(lp6
I3484
aF0.75
aa(lp7
I3485
aF0.59999999999999998
aasI3487
(lp8
(lp9
I3484
aF0.75
aasI3484
(lp10
(lp11
I3486
aF1
aa(lp12
I3485
aF0.59999999999999998
aasI3485
(lp13
(lp14
I3486
aF1
aa(lp15
I3484
aF0.75
aasI-1
(lp16
I3612
aI3614
aI3613
aI3479
aI7169
aI3560
aI6132
aI3461
aI3460
aI3503
aI4214
aI1891
aI4215
aI7464
aI3477
aI7079
aI7005
aI5483
aI7171
aI2227
asI3615
(lp17
(lp18
I3485
aF0.59999999999999998
aas.