(dp1
I-1
(lp2
I10185
aI3549
aI9094
aI8786
aI7394
aI3436
aI7392
aI3550
aI10187
aI9093
aI3488
aI569
aI8789
aI3458
aI3490
aI7407
aI3551
aI5338
aI5337
aI8785
aI4769
aI8788
asI3491
(lp3
(lp4
I3491
aF1
aa(lp5
I3439
aF1
aa(lp6
I3439
aF0.5
aasI3437
(lp7
(lp8
I3439
aF0.5
aasI3438
(lp9
(lp10
I3439
aF0.5
aasI3439
(lp11
(lp12
I3491
aF1
aas.