(dp1
I6579
(lp2
(lp3
I3514
aF0.59999999999999998
aasI3512
(lp4
(lp5
I3515
aF1
aa(lp6
I3513
aF1
aasI3513
(lp7
(lp8
I3515
aF1
aa(lp9
I3512
aF1
aa(lp10
I3514
aF0.59999999999999998
aasI3514
(lp11
(lp12
I3515
aF1
aa(lp13
I3512
aF1
aa(lp14
I3513
aF1
aasI3515
(lp15
(lp16
I3515
aF1
aa(lp17
I3512
aF1
aa(lp18
I3513
aF1
aa(lp19
I3514
aF1
aa(lp20
I3512
aF1
aa(lp21
I3513
aF1
aa(lp22
I3514
aF0.59999999999999998
aasI-1
(lp23
I3669
aI6615
aI3668
aI3671
aI3670
aI3516
aI6614
aI6580
aI3641
aI6581
aI10197
aI3795
aI6577
aI6651
aI3519
aI4201
aI3640
aI6610
aI4202
aI6599
as.