(dp1
I3518
(lp2
(lp3
I3518
aF1
aa(lp4
I3517
aF1
aa(lp5
I3516
aF1
aa(lp6
I3519
aF1
aa(lp7
I3517
aF0.59999999999999998
aa(lp8
I3516
aF0.80000000000000004
aa(lp9
I3519
aF0.80000000000000004
aasI4854
(lp10
(lp11
I3517
aF0.59999999999999998
aasI3516
(lp12
(lp13
I3518
aF1
aa(lp14
I3517
aF0.59999999999999998
aa(lp15
I3519
aF0.80000000000000004
aasI3517
(lp16
(lp17
I3518
aF1
aa(lp18
I3516
aF0.80000000000000004
aa(lp19
I3519
aF0.80000000000000004
aasI-1
(lp20
I5564
aI4980
aI1928
aI4523
aI197
aI9710
aI939
aI7769
aI8849
aI256
aI5293
aI5758
aI9709
aI6357
aI4521
aI6271
aI10188
aI109
aI8271
aI3971
aI6215
asI3519
(lp21
(lp22
I3518
aF1
aa(lp23
I3516
aF0.80000000000000004
aas.