(dp1
I116
(lp2
(lp3
I3581
aF0.59999999999999998
aasI3582
(lp4
(lp5
I3580
aF1
aa(lp6
I3581
aF0.59999999999999998
aasI7130
(lp7
(lp8
I3582
aF0.75
aasI3580
(lp9
(lp10
I3580
aF1
aa(lp11
I3582
aF1
aa(lp12
I3581
aF1
aa(lp13
I3582
aF0.75
aa(lp14
I3581
aF0.59999999999999998
aasI3581
(lp15
(lp16
I3580
aF1
aa(lp17
I3582
aF0.75
aasI-1
(lp18
I3239
aI6814
aI4356
aI733
aI7188
aI6685
aI3236
aI6524
aI1636
aI7064
aI10189
aI7179
aI4329
aI10130
aI196
aI4824
aI7164
aI3583
aI7156
aI8222
aI7132
as.