(dp1
I2608
(lp2
(lp3
I3585
aF0.5
aasI3585
(lp4
(lp5
I3586
aF1
aasI3586
(lp6
(lp7
I3586
aF1
aa(lp8
I3585
aF1
aa(lp9
I3585
aF0.5
aasI3587
(lp10
(lp11
I3585
aF0.5
aasI-1
(lp12
I3347
aI3331
aI3361
aI3363
aI3328
aI3330
aI3362
aI124
aI2987
aI125
aI3716
aI3345
aI3367
aI162
aI3329
aI896
aI140
aI897
aI2986
aI7735
aI5361
aI3584
as.