(dp1
I3584
(lp2
(lp3
I3585
aF0.5
aasI3585
(lp4
(lp5
I3587
aF1
aasI3586
(lp6
(lp7
I3585
aF0.5
aasI3587
(lp8
(lp9
I3587
aF1
aa(lp10
I3585
aF1
aa(lp11
I3585
aF0.5
aasI-1
(lp12
I3855
aI3160
aI359
aI7897
aI3938
aI733
aI347
aI732
aI8689
aI2296
aI437
aI1210
aI975
aI735
aI387
aI973
aI3854
aI1211
aI1208
aI1284
aI3852
as.