(dp1
I-1
(lp2
I8479
aI3588
aI5589
aI5590
aI8062
aI8477
aI4094
aI9444
aI3837
aI4092
aI4052
aI4096
aI9445
aI4054
aI1541
aI5591
aI9973
aI4093
aI449
aI10018
aI6175
aI1509
aI4808
asI1542
(lp3
(lp4
I3590
aF0.5
aasI1940
(lp5
(lp6
I3590
aF0.5
aasI3589
(lp7
(lp8
I3589
aF1
aa(lp9
I3590
aF1
aa(lp10
I3590
aF0.5
aasI3590
(lp11
(lp12
I3589
aF1
aas.