(dp1
I1224
(lp2
(lp3
I3711
aF0.5
aasI-1
(lp4
I1320
aI1245
aI1222
aI1241
aI1240
aI7431
aI1243
aI1234
aI1343
aI1075
aI1020
aI7990
aI1232
aI1443
aI1031
aI1325
aI1010
aI7477
aI1359
aI1440
aI1015
asI3709
(lp5
(lp6
I3711
aF0.5
aasI3710
(lp7
(lp8
I3710
aF1
aa(lp9
I3711
aF1
aa(lp10
I3711
aF0.5
aasI3711
(lp11
(lp12
I3710
aF1
aas.