(dp1
I3712
(lp2
(lp3
I3715
aF1
aa(lp4
I3714
aF1
aa(lp5
I3713
aF1
aasI3713
(lp6
(lp7
I3715
aF1
aa(lp8
I3714
aF1
aa(lp9
I3712
aF1
aasI3714
(lp10
(lp11
I3715
aF1
aa(lp12
I3712
aF1
aa(lp13
I3713
aF1
aasI3715
(lp14
(lp15
I3715
aF1
aa(lp16
I3714
aF1
aa(lp17
I3712
aF1
aa(lp18
I3713
aF1
aa(lp19
I3714
aF1
aa(lp20
I3712
aF1
aa(lp21
I3713
aF1
aasI-1
(lp22
I4853
aI4920
aI4852
aI612
aI4926
aI4128
aI4130
aI4374
aI4974
aI4805
aI4804
aI614
aI4810
aI4807
aI5640
aI4854
aI4784
aI4908
aI4862
aI4131
aI4851
as.