(dp1
I-1
(lp2
I230
aI229
aI227
aI97
aI6009
aI93
aI96
aI6008
aI532
aI81
aI942
aI225
aI2999
aI935
aI309
aI4038
aI5483
aI537
aI66
aI6775
aI462
asI372
(lp3
(lp4
I372
aF1
aa(lp5
I373
aF1
aa(lp6
I374
aF1
aa(lp7
I375
aF1
aa(lp8
I373
aF1
aa(lp9
I374
aF1
aa(lp10
I375
aF1
aasI373
(lp11
(lp12
I372
aF1
aa(lp13
I374
aF1
aa(lp14
I375
aF1
aasI374
(lp15
(lp16
I372
aF1
aa(lp17
I373
aF1
aa(lp18
I375
aF1
aasI375
(lp19
(lp20
I372
aF1
aa(lp21
I373
aF1
aa(lp22
I374
aF1
aas.