(dp1
I3736
(lp2
(lp3
I3736
aF1
aa(lp4
I3739
aF1
aa(lp5
I3739
aF0.5
aasI-1
(lp6
I5644
aI5641
aI4927
aI4854
aI4807
aI4851
aI4852
aI4862
aI4848
aI4804
aI4855
aI3737
aI4863
aI4791
aI4789
aI4810
aI5012
aI3987
aI4878
aI4861
aI4850
asI3739
(lp7
(lp8
I3736
aF1
aasI4805
(lp9
(lp10
I3739
aF0.5
aasI4806
(lp11
(lp12
I3739
aF0.5
aas.