(dp1
I-1
(lp2
I3708
aI3017
aI8790
aI3807
aI3628
aI3768
aI3805
aI6221
aI6222
aI3769
aI3770
aI3517
aI3304
aI1755
aI3771
aI7480
aI3001
aI10186
aI3307
aI3000
aI1944
asI3764
(lp3
(lp4
I3764
aF1
aa(lp5
I3767
aF1
aa(lp6
I3766
aF1
aa(lp7
I3765
aF1
aa(lp8
I3767
aF1
aa(lp9
I3766
aF1
aa(lp10
I3765
aF1
aasI3765
(lp11
(lp12
I3764
aF1
aa(lp13
I3767
aF1
aa(lp14
I3766
aF1
aasI3766
(lp15
(lp16
I3764
aF1
aa(lp17
I3767
aF1
aa(lp18
I3765
aF1
aasI3767
(lp19
(lp20
I3764
aF1
aa(lp21
I3766
aF1
aa(lp22
I3765
aF1
aas.