(dp1
I-1
(lp2
I8892
aI8893
aI5527
aI46
aI7979
aI8972
aI4077
aI1070
aI5090
aI9050
aI4110
aI8826
aI248
aI8780
aI44
aI8650
aI8711
aI5903
aI5026
aI4136
aI5088
asI3780
(lp3
(lp4
I3780
aF1
aa(lp5
I3781
aF1
aa(lp6
I3782
aF1
aa(lp7
I3781
aF0.75
aa(lp8
I3782
aF1
aasI3781
(lp9
(lp10
I3780
aF1
aa(lp11
I3782
aF1
aasI3782
(lp12
(lp13
I3780
aF1
aa(lp14
I3781
aF0.75
aasI3783
(lp15
(lp16
I3781
aF0.75
aa(lp17
I3782
aF1
aas.