(dp1
I808
(lp2
(lp3
I3803
aF0.59999999999999998
aasI3001
(lp4
(lp5
I3801
aF0.75
aasI3801
(lp6
(lp7
I3802
aF1
aa(lp8
I3803
aF0.59999999999999998
aasI3802
(lp9
(lp10
I3802
aF1
aa(lp11
I3801
aF1
aa(lp12
I3803
aF1
aa(lp13
I3801
aF0.75
aa(lp14
I3803
aF0.59999999999999998
aasI3803
(lp15
(lp16
I3802
aF1
aa(lp17
I3801
aF0.75
aasI-1
(lp18
I7427
aI3630
aI3629
aI3631
aI2428
aI3645
aI3746
aI840
aI3635
aI3647
aI1921
aI1920
aI843
aI2709
aI3637
aI3644
aI2611
aI3646
aI2403
aI2844
aI3026
aI841
as.