(dp1
I3808
(lp2
(lp3
I3816
aF0.5
aasI3810
(lp4
(lp5
I3818
aF0.59999999999999998
aasI3816
(lp6
(lp7
I3819
aF1
aa(lp8
I3817
aF1
aasI3817
(lp9
(lp10
I3819
aF1
aa(lp11
I3818
aF0.59999999999999998
aa(lp12
I3816
aF0.5
aasI3818
(lp13
(lp14
I3819
aF1
aa(lp15
I3817
aF1
aasI3819
(lp16
(lp17
I3819
aF1
aa(lp18
I3817
aF1
aa(lp19
I3818
aF1
aa(lp20
I3816
aF1
aa(lp21
I3817
aF1
aa(lp22
I3818
aF0.59999999999999998
aa(lp23
I3816
aF0.5
aasI-1
(lp24
I3809
aI3806
aI3807
aI3813
aI21
aI3805
aI23
aI2444
aI3814
aI3815
aI22
aI20
aI7141
aI7168
aI7042
aI3804
aI7140
aI2446
aI6739
as.