(dp1
I3824
(lp2
(lp3
I3825
aF1
aa(lp4
I3827
aF1
aa(lp5
I3826
aF1
aasI3825
(lp6
(lp7
I3825
aF1
aa(lp8
I3827
aF1
aa(lp9
I3824
aF1
aa(lp10
I3826
aF1
aa(lp11
I3827
aF1
aa(lp12
I3824
aF1
aa(lp13
I3826
aF1
aasI3826
(lp14
(lp15
I3825
aF1
aa(lp16
I3827
aF1
aa(lp17
I3824
aF1
aasI3827
(lp18
(lp19
I3825
aF1
aa(lp20
I3824
aF1
aa(lp21
I3826
aF1
aasI-1
(lp22
I833
aI655
aI1985
aI835
aI957
aI1986
aI832
aI652
aI653
aI86
aI956
aI834
aI85
aI6170
aI1984
aI9387
aI4769
aI4217
aI654
aI5502
aI84
as.