(dp1
I3824
(lp2
(lp3
I3827
aF1
aa(lp4
I3825
aF1
aa(lp5
I3826
aF1
aasI3825
(lp6
(lp7
I3827
aF1
aa(lp8
I3824
aF1
aa(lp9
I3826
aF1
aasI3826
(lp10
(lp11
I3827
aF1
aa(lp12
I3825
aF1
aa(lp13
I3824
aF1
aasI3827
(lp14
(lp15
I3827
aF1
aa(lp16
I3825
aF1
aa(lp17
I3824
aF1
aa(lp18
I3826
aF1
aa(lp19
I3825
aF1
aa(lp20
I3824
aF1
aa(lp21
I3826
aF1
aasI-1
(lp22
I5502
aI1986
aI86
aI833
aI6170
aI5503
aI1985
aI5757
aI957
aI85
aI835
aI832
aI3526
aI1984
aI5762
aI834
aI4769
aI84
aI4217
aI5758
aI87
as.