(dp1
I3838
(lp2
(lp3
I3836
aF1
aa(lp4
I3837
aF1
aasI7253
(lp5
(lp6
I3839
aF0.59999999999999998
aasI3836
(lp7
(lp8
I3836
aF1
aa(lp9
I3837
aF1
aa(lp10
I3839
aF1
aa(lp11
I3838
aF1
aa(lp12
I3837
aF1
aa(lp13
I3839
aF0.59999999999999998
aasI3837
(lp14
(lp15
I3836
aF1
aa(lp16
I3839
aF0.59999999999999998
aasI-1
(lp17
I9867
aI9488
aI1748
aI9933
aI9865
aI9820
aI9950
aI9866
aI2690
aI3835
aI1751
aI7854
aI9491
aI9932
aI9864
aI9949
aI3501
aI3481
aI9951
aI513
asI3839
(lp18
(lp19
I3836
aF1
aa(lp20
I3837
aF1
aas.