(dp1
I2571
(lp2
(lp3
I3848
aF0.59999999999999998
aasI3848
(lp4
(lp5
I3849
aF1
aa(lp6
I3850
aF1
aa(lp7
I3851
aF1
aasI3849
(lp8
(lp9
I3849
aF1
aa(lp10
I3850
aF1
aa(lp11
I3851
aF1
aa(lp12
I3848
aF1
aa(lp13
I3850
aF1
aa(lp14
I3851
aF1
aa(lp15
I3848
aF0.59999999999999998
aasI3850
(lp16
(lp17
I3849
aF1
aa(lp18
I3851
aF1
aa(lp19
I3848
aF0.59999999999999998
aasI3851
(lp20
(lp21
I3849
aF1
aa(lp22
I3850
aF1
aasI-1
(lp23
I49
aI51
aI50
aI48
aI5609
aI5904
aI2567
aI6377
aI3432
aI6378
aI3452
aI5611
aI2885
aI10105
aI663
aI5905
aI485
aI5608
aI484
aI5610
as.