(dp1
I3848
(lp2
(lp3
I3849
aF0.75
aa(lp4
I3850
aF1
aasI3849
(lp5
(lp6
I3851
aF1
aa(lp7
I3850
aF1
aasI3850
(lp8
(lp9
I3851
aF1
aa(lp10
I3849
aF0.75
aasI3851
(lp11
(lp12
I3851
aF1
aa(lp13
I3849
aF1
aa(lp14
I3850
aF1
aa(lp15
I3849
aF0.75
aa(lp16
I3850
aF1
aasI-1
(lp17
I4771
aI5610
aI4656
aI5611
aI4658
aI5609
aI6379
aI4659
aI1225
aI5758
aI4233
aI4542
aI3456
aI4540
aI6376
aI8003
aI4232
aI494
aI6377
aI4769
aI6378
as.