(dp1
I-1
(lp2
I8195
aI8192
aI508
aI3869
aI9154
aI1855
aI4586
aI4297
aI9711
aI219
aI3868
aI6530
aI2242
aI510
aI8193
aI6529
aI3597
aI4640
aI7043
aI6531
aI7105
aI974
aI7131
aI10047
asI3871
(lp3
(lp4
I3871
aF1
aas.