(dp1
I4932
(lp2
(lp3
I3886
aF0.5
aasI197
(lp4
(lp5
I3887
aF0.59999999999999998
aasI3884
(lp6
(lp7
I3885
aF1
aa(lp8
I3887
aF0.59999999999999998
aa(lp9
I3886
aF0.5
aasI3885
(lp10
(lp11
I3885
aF1
aa(lp12
I3887
aF1
aa(lp13
I3884
aF1
aa(lp14
I3886
aF1
aa(lp15
I3887
aF0.59999999999999998
aa(lp16
I3884
aF0.80000000000000004
aa(lp17
I3886
aF0.5
aasI3886
(lp18
(lp19
I3885
aF1
aa(lp20
I3884
aF0.80000000000000004
aasI3887
(lp21
(lp22
I3885
aF1
aa(lp23
I3884
aF0.80000000000000004
aasI-1
(lp24
I2077
aI4980
aI5566
aI4344
aI5567
aI4071
aI3553
aI120
aI4623
aI5565
aI5828
aI5293
aI123
aI476
aI4448
aI5610
aI4622
aI6322
aI8296
aI4459
as.