(dp1
I144
(lp2
(lp3
I3920
aF0.59999999999999998
aasI3920
(lp4
(lp5
I3921
aF1
aa(lp6
I3922
aF0.75
aasI3921
(lp7
(lp8
I3921
aF1
aa(lp9
I3922
aF1
aa(lp10
I3920
aF1
aa(lp11
I3922
aF0.75
aa(lp12
I3920
aF0.59999999999999998
aasI3922
(lp13
(lp14
I3921
aF1
aa(lp15
I3920
aF0.59999999999999998
aasI3923
(lp16
(lp17
I3922
aF0.75
aasI-1
(lp18
I138
aI139
aI137
aI6945
aI771
aI3907
aI6947
aI3904
aI768
aI3906
aI10053
aI10103
aI770
aI769
aI1557
aI146
aI6946
aI5779
aI147
aI527
as.