(dp1
I3936
(lp2
(lp3
I3937
aF1
aa(lp4
I3938
aF0.80000000000000004
aasI3937
(lp5
(lp6
I3937
aF1
aa(lp7
I3936
aF1
aa(lp8
I3938
aF1
aa(lp9
I3939
aF1
aa(lp10
I3936
aF0.59999999999999998
aa(lp11
I3938
aF0.80000000000000004
aasI3938
(lp12
(lp13
I3937
aF1
aa(lp14
I3936
aF0.59999999999999998
aasI3939
(lp15
(lp16
I3937
aF1
aasI897
(lp17
(lp18
I3936
aF0.59999999999999998
aa(lp19
I3938
aF0.80000000000000004
aasI-1
(lp20
I680
aI683
aI682
aI582
aI681
aI6819
aI898
aI5983
aI7714
aI227
aI6941
aI5511
aI221
aI890
aI581
aI6115
aI4567
aI302
aI875
aI882
as.