(dp1
I3940
(lp2
(lp3
I3940
aF1
aa(lp4
I3943
aF1
aa(lp5
I3942
aF1
aa(lp6
I3941
aF1
aa(lp7
I3943
aF1
aa(lp8
I3942
aF0.59999999999999998
aa(lp9
I3941
aF0.5
aasI3941
(lp10
(lp11
I3940
aF1
aa(lp12
I3943
aF1
aasI3942
(lp13
(lp14
I3940
aF1
aa(lp15
I3943
aF1
aasI3943
(lp16
(lp17
I3940
aF1
aa(lp18
I3942
aF0.59999999999999998
aa(lp19
I3941
aF0.5
aasI3945
(lp20
(lp21
I3941
aF0.5
aasI3963
(lp22
(lp23
I3942
aF0.59999999999999998
aasI-1
(lp24
I9105
aI5261
aI9106
aI3974
aI3973
aI9104
aI1373
aI2325
aI1202
aI1374
aI9107
aI3947
aI8984
aI2604
aI2207
aI9114
aI9032
aI7494
aI2158
aI7495
as.