(dp1
I3972
(lp2
(lp3
I3965
aF0.75
aasI3966
(lp4
(lp5
I3964
aF1
aa(lp6
I3965
aF0.75
aasI3964
(lp7
(lp8
I3964
aF1
aa(lp9
I3965
aF1
aa(lp10
I3966
aF1
aa(lp11
I3965
aF0.75
aa(lp12
I3966
aF0.59999999999999998
aasI3965
(lp13
(lp14
I3964
aF1
aa(lp15
I3966
aF0.59999999999999998
aasI-1
(lp16
I4703
aI4468
aI4520
aI4488
aI4700
aI4710
aI4702
aI4401
aI4469
aI4471
aI4708
aI4430
aI4452
aI4553
aI4521
aI4555
aI4491
aI4489
aI4403
aI4515
aI4689
aI4490
asI3967
(lp17
(lp18
I3966
aF0.59999999999999998
aas.