(dp1
I3984
(lp2
(lp3
I3986
aF1
aa(lp4
I3985
aF1
aasI3985
(lp5
(lp6
I3986
aF1
aa(lp7
I3984
aF0.75
aasI3986
(lp8
(lp9
I3986
aF1
aa(lp10
I3984
aF1
aa(lp11
I3985
aF1
aa(lp12
I3984
aF0.75
aa(lp13
I3985
aF1
aasI3987
(lp14
(lp15
I3984
aF0.75
aa(lp16
I3985
aF1
aasI-1
(lp17
I5642
aI5640
aI4863
aI4850
aI4930
aI4888
aI4373
aI4848
aI4786
aI5641
aI4927
aI4846
aI4862
aI4806
aI4804
aI4375
aI4853
aI5012
aI4861
aI5643
aI4131
as.