(dp1
I397
(lp2
(lp3
I403
aF0.5
aasI398
(lp4
(lp5
I402
aF0.59999999999999998
aasI400
(lp6
(lp7
I400
aF1
aa(lp8
I402
aF1
aa(lp9
I403
aF1
aa(lp10
I401
aF1
aa(lp11
I402
aF0.59999999999999998
aa(lp12
I403
aF0.5
aa(lp13
I401
aF0.66666666666666663
aasI401
(lp14
(lp15
I400
aF1
aasI402
(lp16
(lp17
I400
aF1
aa(lp18
I403
aF0.5
aa(lp19
I401
aF0.66666666666666663
aasI403
(lp20
(lp21
I400
aF1
aa(lp22
I402
aF0.59999999999999998
aa(lp23
I401
aF0.66666666666666663
aasI-1
(lp24
I399
aI396
aI5304
aI7203
aI5788
aI5789
aI2723
aI6036
aI2720
aI7202
aI9088
aI123
aI10074
aI120
aI5607
aI122
aI121
aI5815
aI7201
as.