(dp1
I4835
(lp2
(lp3
I4052
aF1
aasI8689
(lp4
(lp5
I4055
aF0.40000000000000002
aasI4052
(lp6
(lp7
I4052
aF1
aa(lp8
I4055
aF1
aa(lp9
I4835
aF1
aa(lp10
I4055
aF0.40000000000000002
aasI4054
(lp11
(lp12
I4055
aF0.40000000000000002
aasI4055
(lp13
(lp14
I4052
aF1
aasI-1
(lp15
I5009
aI4698
aI4484
aI4018
aI4486
aI4696
aI5731
aI4425
aI4246
aI4487
aI4424
aI4813
aI4697
aI4882
aI4426
aI5681
aI4485
aI4019
aI5008
aI8690
as.