(dp1
I4448
(lp2
(lp3
I5633
aF0.5
aasI5633
(lp4
(lp5
I4053
aF1
aasI-1
(lp6
I4126
aI4431
aI5652
aI4450
aI5698
aI5699
aI4095
aI4704
aI5728
aI5634
aI4429
aI4428
aI4440
aI4046
aI4116
aI5635
aI4067
aI4360
aI4392
aI4346
aI4117
asI4053
(lp7
(lp8
I4053
aF1
aa(lp9
I5633
aF1
aa(lp10
I5633
aF0.5
aasI5632
(lp11
(lp12
I5633
aF0.5
aas.