(dp1
I4108
(lp2
(lp3
I4057
aF1
aasI4056
(lp4
(lp5
I4057
aF1
aa(lp6
I4058
aF0.80000000000000004
aa(lp7
I4059
aF0.80000000000000004
aasI4057
(lp8
(lp9
I4057
aF1
aa(lp10
I4056
aF1
aa(lp11
I4058
aF1
aa(lp12
I4059
aF1
aa(lp13
I4108
aF1
aa(lp14
I4056
aF0.80000000000000004
aa(lp15
I4058
aF0.80000000000000004
aa(lp16
I4059
aF0.80000000000000004
aasI4058
(lp17
(lp18
I4057
aF1
aa(lp19
I4056
aF0.80000000000000004
aa(lp20
I4059
aF0.80000000000000004
aasI4059
(lp21
(lp22
I4057
aF1
aa(lp23
I4056
aF0.80000000000000004
aa(lp24
I4058
aF0.80000000000000004
aasI-1
(lp25
I4958
aI4104
aI4107
aI5713
aI4105
aI4959
aI5675
aI5715
aI5674
aI4956
aI5673
aI5335
aI4957
aI4106
aI5334
aI5712
aI5333
aI4110
aI5336
aI5337
as.