(dp1
I-1
(lp2
I5277
aI5131
aI5278
aI2049
aI5276
aI8974
aI5279
aI5130
aI4456
aI1467
aI1666
aI5128
aI5409
aI8975
aI5408
aI5129
aI5928
aI8662
aI7506
aI6247
aI8705
asI4076
(lp3
(lp4
I4078
aF1
aa(lp5
I4079
aF1
aa(lp6
I4077
aF1
aasI4077
(lp7
(lp8
I4078
aF1
aa(lp9
I4079
aF1
aa(lp10
I4076
aF1
aasI4078
(lp11
(lp12
I4078
aF1
aa(lp13
I4079
aF1
aa(lp14
I4076
aF1
aa(lp15
I4077
aF1
aa(lp16
I4079
aF1
aa(lp17
I4076
aF1
aa(lp18
I4077
aF1
aasI4079
(lp19
(lp20
I4078
aF1
aa(lp21
I4076
aF1
aa(lp22
I4077
aF1
aas.