(dp1
I4096
(lp2
(lp3
I4122
aF0.59999999999999998
aasI4120
(lp4
(lp5
I4121
aF1
aa(lp6
I4122
aF0.59999999999999998
aa(lp7
I4123
aF0.80000000000000004
aasI4121
(lp8
(lp9
I4121
aF1
aa(lp10
I4120
aF1
aa(lp11
I4122
aF1
aa(lp12
I4123
aF1
aa(lp13
I4120
aF1
aa(lp14
I4122
aF0.59999999999999998
aa(lp15
I4123
aF0.80000000000000004
aasI4122
(lp16
(lp17
I4121
aF1
aa(lp18
I4120
aF1
aa(lp19
I4123
aF0.80000000000000004
aasI4123
(lp20
(lp21
I4121
aF1
aa(lp22
I4120
aF1
aasI-1
(lp23
I4099
aI4094
aI4129
aI4092
aI4101
aI4093
aI4097
aI4095
aI4089
aI4131
aI4130
aI3987
aI4100
aI4082
aI4102
aI4128
aI4090
aI4084
aI677
aI4083
as.