(dp1
I4126
(lp2
(lp3
I4126
aF1
aa(lp4
I4127
aF1
aa(lp5
I4124
aF1
aa(lp6
I4125
aF1
aa(lp7
I4095
aF1
aa(lp8
I4127
aF0.80000000000000004
aa(lp9
I4124
aF0.80000000000000004
aa(lp10
I4125
aF0.80000000000000004
aasI4127
(lp11
(lp12
I4126
aF1
aa(lp13
I4124
aF0.80000000000000004
aa(lp14
I4125
aF0.80000000000000004
aasI4124
(lp15
(lp16
I4126
aF1
aa(lp17
I4127
aF0.80000000000000004
aa(lp18
I4125
aF0.80000000000000004
aasI4125
(lp19
(lp20
I4126
aF1
aa(lp21
I4127
aF0.80000000000000004
aa(lp22
I4124
aF0.80000000000000004
aasI-1
(lp23
I4085
aI4092
aI4430
aI4065
aI4401
aI4087
aI4066
aI4402
aI4451
aI4450
aI4084
aI5655
aI4067
aI4910
aI5728
aI4431
aI4093
aI5653
aI4708
aI5699
asI4095
(lp24
(lp25
I4126
aF1
aas.