(dp1
I4204
(lp2
(lp3
I4206
aF1
aa(lp4
I4205
aF0.42857142857142855
aasI4205
(lp5
(lp6
I4206
aF1
aa(lp7
I4204
aF0.5
aasI4206
(lp8
(lp9
I4206
aF1
aa(lp10
I4205
aF1
aa(lp11
I4207
aF1
aa(lp12
I4204
aF1
aa(lp13
I4211
aF1
aa(lp14
I4210
aF1
aa(lp15
I4205
aF0.42857142857142855
aa(lp16
I4207
aF0.375
aa(lp17
I4204
aF0.5
aa(lp18
I4211
aF0.5
aa(lp19
I4210
aF0.5
aasI4207
(lp20
(lp21
I4206
aF1
aasI4208
(lp22
(lp23
I4207
aF0.375
aa(lp24
I4211
aF0.5
aasI4209
(lp25
(lp26
I4205
aF0.42857142857142855
aa(lp27
I4204
aF0.5
aa(lp28
I4210
aF0.5
aasI4210
(lp29
(lp30
I4206
aF1
aa(lp31
I4211
aF0.5
aasI4211
(lp32
(lp33
I4206
aF1
aa(lp34
I4207
aF0.375
aa(lp35
I4210
aF0.5
aasI-1
(lp36
I4200
aI6755
aI4201
aI4529
aI9989
aI735
aI839
aI1803
aI1801
aI9991
aI1056
aI9174
aI1838
aI4195
aI1471
aI4203
aI4202
as.