(dp1
I3953
(lp2
(lp3
I4212
aF1
aasI4212
(lp4
(lp5
I4212
aF1
aa(lp6
I4215
aF1
aa(lp7
I4213
aF1
aa(lp8
I4214
aF1
aa(lp9
I3953
aF1
aa(lp10
I4215
aF0.80000000000000004
aa(lp11
I4213
aF0.80000000000000004
aa(lp12
I4214
aF0.80000000000000004
aasI4213
(lp13
(lp14
I4212
aF1
aa(lp15
I4215
aF0.80000000000000004
aa(lp16
I4214
aF0.80000000000000004
aasI4214
(lp17
(lp18
I4212
aF1
aa(lp19
I4215
aF0.80000000000000004
aa(lp20
I4213
aF0.80000000000000004
aasI4215
(lp21
(lp22
I4212
aF1
aa(lp23
I4213
aF0.80000000000000004
aa(lp24
I4214
aF0.80000000000000004
aasI-1
(lp25
I8929
aI5132
aI8930
aI9001
aI5234
aI162
aI7508
aI8928
aI833
aI6186
aI8300
aI8302
aI5018
aI3954
aI4763
aI8906
aI5233
aI5336
aI3952
aI8301
as.