(dp1
I4224
(lp2
(lp3
I4226
aF1
aa(lp4
I4225
aF0.80000000000000004
aasI4225
(lp5
(lp6
I4226
aF1
aa(lp7
I4224
aF1
aa(lp8
I4227
aF0.59999999999999998
aasI4226
(lp9
(lp10
I4226
aF1
aa(lp11
I4224
aF1
aa(lp12
I4227
aF1
aa(lp13
I4225
aF1
aa(lp14
I4224
aF1
aa(lp15
I4227
aF0.59999999999999998
aa(lp16
I4225
aF0.80000000000000004
aasI4227
(lp17
(lp18
I4226
aF1
aa(lp19
I4224
aF1
aa(lp20
I4225
aF0.80000000000000004
aasI4529
(lp21
(lp22
I4227
aF0.59999999999999998
aasI-1
(lp23
I880
aI881
aI883
aI882
aI5758
aI6364
aI7392
aI5761
aI4250
aI5586
aI7394
aI811
aI810
aI4530
aI4531
aI812
aI4249
aI4110
aI814
aI4495
as.