(dp1
I4364
(lp2
(lp3
I4364
aF1
aa(lp4
I4365
aF1
aa(lp5
I4367
aF1
aa(lp6
I4365
aF0.40000000000000002
aa(lp7
I4367
aF0.80000000000000004
aasI4365
(lp8
(lp9
I4364
aF1
aa(lp10
I4367
aF0.80000000000000004
aasI4878
(lp11
(lp12
I4365
aF0.40000000000000002
aasI4367
(lp13
(lp14
I4364
aF1
aasI4366
(lp15
(lp16
I4365
aF0.40000000000000002
aa(lp17
I4367
aF0.80000000000000004
aasI-1
(lp18
I5630
aI4790
aI4973
aI4786
aI5643
aI4362
aI5631
aI5641
aI5645
aI4810
aI614
aI4921
aI5642
aI4862
aI4361
aI4879
aI5628
aI4805
aI4877
aI556
aI5696
as.