(dp1
I4368
(lp2
(lp3
I4369
aF1
aasI4369
(lp4
(lp5
I4369
aF1
aa(lp6
I4370
aF1
aa(lp7
I4368
aF1
aa(lp8
I4371
aF1
aa(lp9
I4370
aF0.59999999999999998
aa(lp10
I4368
aF0.5
aa(lp11
I4371
aF0.42857142857142855
aasI4370
(lp12
(lp13
I4369
aF1
aa(lp14
I4368
aF0.5
aa(lp15
I4371
aF0.42857142857142855
aasI4371
(lp16
(lp17
I4369
aF1
aa(lp18
I4370
aF0.59999999999999998
aasI-1
(lp19
I4404
aI4345
aI4347
aI4344
aI4405
aI5628
aI5629
aI5631
aI4407
aI5647
aI5646
aI4926
aI4934
aI4362
aI5642
aI4800
aI5641
aI4925
asI4406
(lp20
(lp21
I4371
aF0.42857142857142855
aasI4346
(lp22
(lp23
I4368
aF0.5
aasI5630
(lp24
(lp25
I4370
aF0.59999999999999998
aas.