(dp1
I4428
(lp2
(lp3
I4429
aF1
aa(lp4
I4430
aF1
aa(lp5
I4431
aF0.80000000000000004
aasI4429
(lp6
(lp7
I4429
aF1
aa(lp8
I4430
aF1
aa(lp9
I4428
aF1
aa(lp10
I4431
aF1
aa(lp11
I4430
aF1
aa(lp12
I4428
aF0.59999999999999998
aa(lp13
I4431
aF0.80000000000000004
aasI4430
(lp14
(lp15
I4429
aF1
aa(lp16
I4428
aF0.59999999999999998
aa(lp17
I4431
aF0.80000000000000004
aasI4431
(lp18
(lp19
I4429
aF1
aa(lp20
I4430
aF1
aasI4439
(lp21
(lp22
I4428
aF0.59999999999999998
aasI-1
(lp23
I4448
aI4520
aI4450
aI4436
aI4451
aI4437
aI4440
aI4522
aI4441
aI5680
aI4383
aI4693
aI4449
aI7768
aI1929
aI4468
aI4523
aI1966
aI4445
aI3298
as.