(dp1
I4472
(lp2
(lp3
I4475
aF1
aa(lp4
I4474
aF1
aa(lp5
I4473
aF1
aasI4473
(lp6
(lp7
I4475
aF1
aa(lp8
I4474
aF1
aa(lp9
I4472
aF1
aasI4474
(lp10
(lp11
I4475
aF1
aa(lp12
I4473
aF1
aa(lp13
I4472
aF1
aasI4475
(lp14
(lp15
I4475
aF1
aa(lp16
I4474
aF1
aa(lp17
I4473
aF1
aa(lp18
I4472
aF1
aa(lp19
I4474
aF1
aa(lp20
I4473
aF1
aa(lp21
I4472
aF1
aasI-1
(lp22
I4488
aI4518
aI4522
aI4490
aI4469
aI4519
aI4491
aI4470
aI4455
aI4523
aI4520
aI4471
aI3964
aI4489
aI4676
aI4521
aI1284
aI4487
aI4516
aI8931
aI4453
as.