(dp1
I4480
(lp2
(lp3
I4480
aF1
aa(lp4
I4481
aF1
aa(lp5
I4481
aF0.5
aasI4481
(lp6
(lp7
I4480
aF1
aasI4482
(lp8
(lp9
I4481
aF0.5
aasI-1
(lp10
I3624
aI4870
aI4939
aI3950
aI4331
aI4851
aI4833
aI4819
aI4968
aI5006
aI4848
aI4878
aI3626
aI4978
aI5643
aI4849
aI4817
aI797
aI4891
aI4823
aI561
aI4791
aI4945
asI4942
(lp11
(lp12
I4481
aF0.5
aas.