(dp1
I4488
(lp2
(lp3
I4489
aF1
aa(lp4
I4490
aF1
aa(lp5
I4491
aF1
aasI4489
(lp6
(lp7
I4489
aF1
aa(lp8
I4490
aF1
aa(lp9
I4491
aF1
aa(lp10
I4488
aF1
aa(lp11
I4490
aF1
aa(lp12
I4491
aF1
aa(lp13
I4488
aF1
aasI4490
(lp14
(lp15
I4489
aF1
aa(lp16
I4491
aF1
aa(lp17
I4488
aF1
aasI4491
(lp18
(lp19
I4489
aF1
aa(lp20
I4490
aF1
aa(lp21
I4488
aF1
aasI-1
(lp22
I4468
aI4703
aI4469
aI4520
aI4471
aI4410
aI4700
aI4470
aI4436
aI4475
aI4451
aI4430
aI4439
aI4463
aI4689
aI4521
aI4461
aI4411
aI4522
aI4408
aI4472
as.