(dp1
I4513
(lp2
(lp3
I4515
aF1
aa(lp4
I4514
aF0.59999999999999998
aasI4514
(lp5
(lp6
I4515
aF1
aa(lp7
I4513
aF0.75
aasI4515
(lp8
(lp9
I4515
aF1
aa(lp10
I4513
aF1
aa(lp11
I4514
aF1
aa(lp12
I4513
aF0.75
aa(lp13
I4514
aF0.59999999999999998
aasI4422
(lp14
(lp15
I4514
aF0.59999999999999998
aasI4693
(lp16
(lp17
I4513
aF0.75
aasI-1
(lp18
I4423
aI4689
aI4692
aI4421
aI4420
aI4396
aI4520
aI4397
aI4398
aI4484
aI4688
aI4496
aI4468
aI4499
aI4245
aI4552
aI4399
aI4697
aI4497
aI4498
as.