(dp1
I4606
(lp2
(lp3
I4601
aF0.59999999999999998
aa(lp4
I4602
aF0.80000000000000004
aasI4600
(lp5
(lp6
I4600
aF1
aa(lp7
I4601
aF1
aa(lp8
I4603
aF1
aa(lp9
I4602
aF1
aa(lp10
I4601
aF0.59999999999999998
aa(lp11
I4602
aF0.80000000000000004
aasI4601
(lp12
(lp13
I4600
aF1
aa(lp14
I4602
aF0.80000000000000004
aasI4602
(lp15
(lp16
I4600
aF1
aa(lp17
I4601
aF0.59999999999999998
aasI4603
(lp18
(lp19
I4600
aF1
aasI-1
(lp20
I4324
aI387
aI4327
aI4329
aI7157
aI3561
aI4809
aI1896
aI1820
aI7001
aI3986
aI7011
aI1962
aI4130
aI4330
aI1899
aI4918
aI732
aI4987
aI8726
as.