(dp1
I-1
(lp2
I6722
aI3807
aI6732
aI6656
aI3804
aI6733
aI3805
aI936
aI3806
aI6723
aI6734
aI3787
aI4584
aI6684
aI3811
aI6720
aI3843
aI4381
aI8876
aI3676
aI8849
asI460
(lp3
(lp4
I461
aF1
aasI461
(lp5
(lp6
I461
aF1
aa(lp7
I460
aF1
aa(lp8
I460
aF0.5
aasI462
(lp9
(lp10
I460
aF0.5
aasI463
(lp11
(lp12
I460
aF0.5
aas.