(dp1
I4616
(lp2
(lp3
I4617
aF1
aa(lp4
I4618
aF1
aasI4617
(lp5
(lp6
I4617
aF1
aa(lp7
I4616
aF1
aa(lp8
I4618
aF1
aa(lp9
I4616
aF0.75
aa(lp10
I4618
aF1
aasI4618
(lp11
(lp12
I4617
aF1
aa(lp13
I4616
aF0.75
aasI4619
(lp14
(lp15
I4616
aF0.75
aa(lp16
I4618
aF1
aasI-1
(lp17
I6123
aI5360
aI6121
aI6122
aI6114
aI6113
aI1912
aI5094
aI4588
aI5265
aI5018
aI6858
aI5899
aI5362
aI5448
aI4591
aI5361
aI5093
aI6118
aI5095
aI5019
as.