(dp1
I4632
(lp2
(lp3
I4632
aF1
aa(lp4
I4633
aF1
aa(lp5
I4634
aF1
aa(lp6
I4635
aF1
aa(lp7
I4633
aF1
aa(lp8
I4634
aF1
aa(lp9
I4635
aF1
aasI4633
(lp10
(lp11
I4632
aF1
aa(lp12
I4634
aF1
aa(lp13
I4635
aF1
aasI4634
(lp14
(lp15
I4632
aF1
aa(lp16
I4633
aF1
aa(lp17
I4635
aF1
aasI4635
(lp18
(lp19
I4632
aF1
aa(lp20
I4633
aF1
aa(lp21
I4634
aF1
aasI-1
(lp22
I4584
aI4625
aI4626
aI5135
aI5133
aI4608
aI4586
aI5134
aI6137
aI4610
aI5132
aI6138
aI4585
aI6136
aI5339
aI4110
aI5331
aI4611
aI5852
aI4897
aI5301
as.