(dp1
I4657
(lp2
(lp3
I4655
aF0.75
aa(lp4
I4652
aF1
aasI4652
(lp5
(lp6
I4653
aF1
aa(lp7
I4655
aF0.75
aasI4653
(lp8
(lp9
I4653
aF1
aa(lp10
I4655
aF1
aa(lp11
I4652
aF1
aa(lp12
I4655
aF0.75
aa(lp13
I4652
aF1
aasI-1
(lp14
I8234
aI3840
aI4658
aI3843
aI4641
aI8997
aI4656
aI8192
aI6231
aI3846
aI508
aI9014
aI8687
aI4543
aI8268
aI9581
aI3488
aI8947
aI8278
aI8329
aI3842
asI4655
(lp15
(lp16
I4653
aF1
aa(lp17
I4652
aF1
aas.