(dp1
I4684
(lp2
(lp3
I4686
aF1
aa(lp4
I4685
aF1
aasI4685
(lp5
(lp6
I4686
aF1
aa(lp7
I4684
aF1
aa(lp8
I4687
aF0.59999999999999998
aasI4686
(lp9
(lp10
I4686
aF1
aa(lp11
I4685
aF1
aa(lp12
I4684
aF1
aa(lp13
I4687
aF1
aa(lp14
I4685
aF1
aa(lp15
I4684
aF1
aa(lp16
I4687
aF0.59999999999999998
aasI4687
(lp17
(lp18
I4686
aF1
aa(lp19
I4685
aF1
aa(lp20
I4684
aF1
aasI-1
(lp21
I616
aI4381
aI2353
aI617
aI6190
aI4391
aI3270
aI6624
aI7589
aI5398
aI4380
aI2504
aI7179
aI4465
aI2457
aI611
aI5686
aI3271
aI618
aI4439
aI684
asI4383
(lp22
(lp23
I4687
aF0.59999999999999998
aas.