(dp1
I4484
(lp2
(lp3
I4688
aF1
aa(lp4
I4692
aF0.75
aasI4486
(lp5
(lp6
I4484
aF0.33333333333333331
aasI4487
(lp7
(lp8
I4484
aF0.33333333333333331
aasI4688
(lp9
(lp10
I4688
aF1
aa(lp11
I4692
aF1
aa(lp12
I4484
aF1
aa(lp13
I4692
aF0.75
aa(lp14
I4484
aF0.33333333333333331
aasI4692
(lp15
(lp16
I4688
aF1
aasI4693
(lp17
(lp18
I4692
aF0.75
aasI-1
(lp19
I4690
aI4513
aI4512
aI4691
aI4689
aI4694
aI4695
aI4516
aI4515
aI5658
aI4517
aI4245
aI5663
aI5684
aI5685
aI4244
aI4485
aI4398
aI4696
aI5657
as.