(dp1
I4513
(lp2
(lp3
I4693
aF0.5
aasI4689
(lp4
(lp5
I4691
aF0.40000000000000002
aa(lp6
I4693
aF0.5
aasI4690
(lp7
(lp8
I4690
aF1
aa(lp9
I4691
aF1
aa(lp10
I4693
aF1
aa(lp11
I4691
aF0.40000000000000002
aa(lp12
I4693
aF0.5
aasI4691
(lp13
(lp14
I4690
aF1
aasI4693
(lp15
(lp16
I4690
aF1
aasI4695
(lp17
(lp18
I4691
aF0.40000000000000002
aasI-1
(lp19
I4474
aI4473
aI4688
aI4475
aI4694
aI4472
aI5683
aI4692
aI5659
aI4491
aI4484
aI4512
aI4487
aI5658
aI4520
aI4514
aI5657
aI5663
aI5684
as.