(dp1
I4704
(lp2
(lp3
I4705
aF0.75
aa(lp4
I4707
aF1
aasI4705
(lp5
(lp6
I4706
aF1
aa(lp7
I4707
aF1
aasI4706
(lp8
(lp9
I4706
aF1
aa(lp10
I4705
aF1
aa(lp11
I4707
aF1
aa(lp12
I4705
aF0.75
aa(lp13
I4707
aF1
aasI4707
(lp14
(lp15
I4706
aF1
aa(lp16
I4705
aF0.75
aasI-1
(lp17
I4455
aI4454
aI4452
aI4453
aI1116
aI4055
aI1092
aI4709
aI1167
aI1218
aI1094
aI3978
aI1219
aI1087
aI1611
aI4584
aI1280
aI1052
aI6839
aI8820
aI1095
as.