(dp1
I4712
(lp2
(lp3
I4715
aF1
aa(lp4
I4713
aF0.80000000000000004
aa(lp5
I4714
aF0.80000000000000004
aasI4713
(lp6
(lp7
I4715
aF1
aa(lp8
I4712
aF0.80000000000000004
aa(lp9
I4714
aF0.80000000000000004
aasI4714
(lp10
(lp11
I4715
aF1
aa(lp12
I4712
aF0.80000000000000004
aa(lp13
I4713
aF0.80000000000000004
aasI4715
(lp14
(lp15
I4715
aF1
aa(lp16
I4712
aF1
aa(lp17
I4713
aF1
aa(lp18
I4714
aF1
aa(lp19
I4753
aF1
aa(lp20
I4712
aF0.80000000000000004
aa(lp21
I4713
aF0.80000000000000004
aa(lp22
I4714
aF0.80000000000000004
aasI4753
(lp23
(lp24
I4715
aF1
aasI-1
(lp25
I4755
aI4722
aI4720
aI4721
aI4754
aI4728
aI4756
aI4613
aI4726
aI4724
aI4614
aI4612
aI4730
aI4615
aI4736
aI4717
aI4718
aI4727
aI4716
aI4759
as.