(dp1
I4728
(lp2
(lp3
I4731
aF1
aasI4729
(lp4
(lp5
I4728
aF0.5
aasI4730
(lp6
(lp7
I4728
aF0.5
aasI4731
(lp8
(lp9
I4731
aF1
aa(lp10
I4728
aF1
aa(lp11
I4728
aF0.5
aasI-1
(lp12
I6980
aI4586
aI4584
aI4289
aI3977
aI617
aI1924
aI1928
aI4585
aI276
aI619
aI5758
aI3979
aI5676
aI4835
aI3285
aI6356
aI5678
aI7524
aI10190
aI9056
aI616
aI8268
as.