(dp1
I4734
(lp2
(lp3
I4735
aF1
aasI4729
(lp4
(lp5
I4733
aF0.59999999999999998
aa(lp6
I4732
aF0.80000000000000004
aasI4732
(lp7
(lp8
I4735
aF1
aa(lp9
I4733
aF0.59999999999999998
aasI4733
(lp10
(lp11
I4735
aF1
aa(lp12
I4732
aF0.80000000000000004
aasI-1
(lp13
I2054
aI2053
aI6143
aI1888
aI6155
aI7455
aI1891
aI7441
aI2101
aI2103
aI1889
aI2757
aI2052
aI9060
aI5361
aI4727
aI7451
aI9061
aI4726
aI6154
aI6153
asI4735
(lp14
(lp15
I4735
aF1
aa(lp16
I4733
aF1
aa(lp17
I4732
aF1
aa(lp18
I4734
aF1
aa(lp19
I4733
aF0.59999999999999998
aa(lp20
I4732
aF0.80000000000000004
aas.