(dp1
I4784
(lp2
(lp3
I4787
aF0.5
aasI4786
(lp4
(lp5
I4786
aF1
aa(lp6
I4787
aF1
aa(lp7
I4787
aF0.5
aasI4787
(lp8
(lp9
I4786
aF1
aasI636
(lp10
(lp11
I4787
aF0.5
aasI-1
(lp12
I4852
aI4807
aI4862
aI4804
aI4981
aI4853
aI4926
aI4927
aI4810
aI4847
aI4791
aI4855
aI4860
aI3987
aI5643
aI4924
aI4806
aI4848
aI4790
aI5012
aI3986
aI4863
as.