(dp1
I4792
(lp2
(lp3
I4795
aF1
aasI4793
(lp4
(lp5
I4792
aF0.5
aasI4794
(lp6
(lp7
I4792
aF0.5
aasI4795
(lp8
(lp9
I4795
aF1
aa(lp10
I4792
aF1
aa(lp11
I4792
aF0.5
aasI-1
(lp12
I4791
aI5012
aI4855
aI4839
aI4926
aI4789
aI10194
aI4845
aI4850
aI4805
aI4806
aI4853
aI4846
aI4969
aI4852
aI5015
aI3984
aI4807
aI4861
aI4790
aI8481
as.