(dp1
I4832
(lp2
(lp3
I4833
aF1
aasI4833
(lp4
(lp5
I4833
aF1
aa(lp6
I4832
aF1
aa(lp7
I4832
aF0.5
aasI5264
(lp8
(lp9
I4832
aF0.5
aasI5530
(lp10
(lp11
I4832
aF0.5
aasI-1
(lp12
I4875
aI4802
aI4830
aI4800
aI4803
aI4992
aI4874
aI4797
aI4796
aI4801
aI4786
aI4532
aI4373
aI4828
aI4891
aI4831
aI4929
aI4297
aI4930
aI5691
aI4806
aI4799
as.