(dp1
I4864
(lp2
(lp3
I4864
aF1
aa(lp4
I4865
aF1
aa(lp5
I4867
aF1
aa(lp6
I4865
aF0.40000000000000002
aa(lp7
I4867
aF0.5
aasI4865
(lp8
(lp9
I4864
aF1
aa(lp10
I4867
aF0.5
aasI4866
(lp11
(lp12
I4867
aF0.5
aasI4867
(lp13
(lp14
I4864
aF1
aasI4868
(lp15
(lp16
I4865
aF0.40000000000000002
aasI4870
(lp17
(lp18
I4865
aF0.40000000000000002
aasI-1
(lp19
I4869
aI4871
aI4786
aI4802
aI4983
aI5004
aI4874
aI4877
aI4875
aI4950
aI4939
aI4803
aI4891
aI4982
aI5708
aI4938
aI4936
aI4937
aI4793
as.