(dp1
I3616
(lp2
(lp3
I3617
aF0.5
aasI3617
(lp4
(lp5
I487
aF1
aasI3289
(lp6
(lp7
I3617
aF0.5
aasI-1
(lp8
I8786
aI8788
aI8789
aI2185
aI981
aI7392
aI136
aI936
aI8785
aI8791
aI8787
aI3763
aI8790
aI488
aI3288
aI3455
aI9344
aI3762
aI10186
aI486
aI3517
aI10185
aI8739
asI487
(lp9
(lp10
I487
aF1
aa(lp11
I3617
aF1
aa(lp12
I3617
aF0.5
aas.