(dp1
I4872
(lp2
(lp3
I4874
aF1
aa(lp4
I4875
aF1
aa(lp5
I4873
aF1
aasI4873
(lp6
(lp7
I4874
aF1
aa(lp8
I4875
aF1
aa(lp9
I4872
aF1
aasI4874
(lp10
(lp11
I4874
aF1
aa(lp12
I4875
aF1
aa(lp13
I4873
aF1
aa(lp14
I4872
aF1
aa(lp15
I4875
aF1
aa(lp16
I4873
aF1
aa(lp17
I4872
aF1
aasI4875
(lp18
(lp19
I4874
aF1
aa(lp20
I4873
aF1
aa(lp21
I4872
aF1
aasI-1
(lp22
I4870
aI4865
aI4802
aI4871
aI4864
aI4891
aI4868
aI4803
aI4950
aI4869
aI5004
aI4949
aI4833
aI4866
aI4786
aI4219
aI4948
aI4801
aI4481
aI4830
aI4800
as.