(dp1
I4896
(lp2
(lp3
I4896
aF1
aa(lp4
I4897
aF1
aa(lp5
I4899
aF1
aa(lp6
I4898
aF1
aa(lp7
I4897
aF0.59999999999999998
aa(lp8
I4899
aF0.80000000000000004
aa(lp9
I4898
aF0.5
aasI4897
(lp10
(lp11
I4896
aF1
aa(lp12
I4899
aF0.80000000000000004
aasI4898
(lp13
(lp14
I4896
aF1
aa(lp15
I4899
aF0.80000000000000004
aasI4899
(lp16
(lp17
I4896
aF1
aa(lp18
I4897
aF0.59999999999999998
aa(lp19
I4898
aF0.5
aasI-1
(lp20
I4531
aI4530
aI4529
aI4528
aI4611
aI4927
aI4572
aI4610
aI4504
aI4575
aI4339
aI4573
aI4672
aI4574
aI4609
aI4924
aI4925
aI4527
aI4249
asI4608
(lp21
(lp22
I4897
aF0.59999999999999998
aasI4926
(lp23
(lp24
I4898
aF0.5
aas.