(dp1
I-1
(lp2
I6379
aI6898
aI6378
aI3299
aI4873
aI8467
aI4872
aI4829
aI4875
aI4820
aI4867
aI4833
aI4823
aI4864
aI3484
aI4928
aI7400
aI671
aI4876
aI4038
aI6377
aI8332
asI4919
(lp3
(lp4
I4918
aF0.5
aasI4917
(lp5
(lp6
I4917
aF1
aa(lp7
I4918
aF1
aa(lp8
I4918
aF0.5
aasI4918
(lp9
(lp10
I4917
aF1
aasI629
(lp11
(lp12
I4918
aF0.5
aas.