(dp1
I4952
(lp2
(lp3
I4952
aF1
aa(lp4
I4953
aF1
aa(lp5
I4955
aF1
aa(lp6
I4953
aF0.75
aa(lp7
I4955
aF1
aasI4953
(lp8
(lp9
I4952
aF1
aa(lp10
I4955
aF1
aasI4955
(lp11
(lp12
I4952
aF1
aa(lp13
I4953
aF0.75
aasI-1
(lp14
I4926
aI4896
aI4897
aI4899
aI5586
aI4993
aI4225
aI4532
aI4797
aI4535
aI4925
aI4533
aI9135
aI4346
aI4534
aI4585
aI4796
aI4584
aI4226
aI4924
aI4898
asI4927
(lp15
(lp16
I4953
aF0.75
aa(lp17
I4955
aF1
aas.