(dp1
I4952
(lp2
(lp3
I4953
aF1
aasI4953
(lp4
(lp5
I4953
aF1
aa(lp6
I4952
aF1
aa(lp7
I4952
aF0.5
aasI4954
(lp8
(lp9
I4952
aF0.5
aasI-1
(lp10
I8462
aI3582
aI42
aI8943
aI3580
aI2383
aI9005
aI6124
aI4814
aI6126
aI845
aI4602
aI3031
aI3034
aI6814
aI631
aI4601
aI6526
aI6376
aI6127
aI3121
aI1704
asI41
(lp11
(lp12
I4952
aF0.5
aas.