(dp1
I4964
(lp2
(lp3
I4982
aF0.59999999999999998
aasI4805
(lp4
(lp5
I4983
aF0.75
aasI4981
(lp6
(lp7
I4981
aF1
aa(lp8
I4983
aF1
aa(lp9
I4982
aF1
aa(lp10
I4983
aF0.75
aa(lp11
I4982
aF0.59999999999999998
aasI4982
(lp12
(lp13
I4981
aF1
aa(lp14
I4983
aF0.75
aasI4983
(lp15
(lp16
I4981
aF1
aa(lp17
I4982
aF0.59999999999999998
aasI-1
(lp18
I4853
aI4852
aI4807
aI4920
aI4806
aI4980
aI4927
aI4786
aI5012
aI4791
aI4810
aI4854
aI4804
aI3984
aI4789
aI4863
aI4847
aI4862
aI4860
aI5644
aI4861
as.