(dp1
I4984
(lp2
(lp3
I4984
aF1
aa(lp4
I4986
aF1
aa(lp5
I4986
aF0.5
aasI4985
(lp6
(lp7
I4986
aF0.5
aasI4986
(lp8
(lp9
I4984
aF1
aasI4987
(lp10
(lp11
I4986
aF0.5
aasI-1
(lp12
I4852
aI5641
aI4878
aI4899
aI4929
aI4837
aI1796
aI3987
aI4838
aI4785
aI4862
aI4851
aI10194
aI5642
aI4844
aI4863
aI4925
aI4790
aI4847
aI3893
aI4964
as.