(dp1
I5000
(lp2
(lp3
I5002
aF0.5
aasI5001
(lp4
(lp5
I5002
aF0.5
aasI5002
(lp6
(lp7
I5003
aF1
aasI5003
(lp8
(lp9
I5003
aF1
aa(lp10
I5002
aF1
aa(lp11
I5002
aF0.5
aasI-1
(lp12
I2394
aI4867
aI10130
aI6376
aI4814
aI4815
aI8333
aI629
aI6127
aI42
aI7388
aI6124
aI1733
aI6899
aI2386
aI2395
aI4812
aI6379
aI6377
aI4864
aI6897
aI43
aI7389
as.