(dp1
I5016
(lp2
(lp3
I5016
aF1
aasI-1
(lp4
I1889
aI1891
aI9934
aI6052
aI4581
aI9935
aI9967
aI4580
aI5582
aI6077
aI9777
aI9905
aI9969
aI1985
aI1890
aI9778
aI4582
aI1888
aI9776
aI6153
aI4214
aI6155
aI6025
aI9933
as.