(dp1
I1070
(lp2
(lp3
I501
aF0.40000000000000002
aasI500
(lp4
(lp5
I502
aF1
aasI501
(lp6
(lp7
I502
aF1
aasI502
(lp8
(lp9
I502
aF1
aa(lp10
I501
aF1
aa(lp11
I500
aF1
aa(lp12
I501
aF0.40000000000000002
aasI2938
(lp13
(lp14
I501
aF0.40000000000000002
aasI-1
(lp15
I1418
aI1006
aI1419
aI1030
aI7988
aI1417
aI1007
aI1398
aI1004
aI1326
aI1008
aI7990
aI1294
aI1022
aI1071
aI1005
aI7989
aI1416
aI1140
aI1324
aI7991
as.