(dp1
I5032
(lp2
(lp3
I5035
aF1
aa(lp4
I5033
aF1
aasI5033
(lp5
(lp6
I5035
aF1
aa(lp7
I5032
aF0.75
aasI5034
(lp8
(lp9
I5032
aF0.75
aa(lp10
I5033
aF1
aasI5035
(lp11
(lp12
I5035
aF1
aa(lp13
I5032
aF1
aa(lp14
I5033
aF1
aa(lp15
I5032
aF0.75
aa(lp16
I5033
aF1
aasI-1
(lp17
I5067
aI5064
aI5359
aI5356
aI5194
aI1160
aI3355
aI6887
aI3367
aI5066
aI5372
aI3156
aI5393
aI6763
aI5063
aI5065
aI6773
aI5192
aI5116
aI3352
aI8821
as.