(dp1
I354
(lp2
(lp3
I506
aF0.5
aasI2296
(lp4
(lp5
I507
aF0.59999999999999998
aasI504
(lp6
(lp7
I504
aF1
aa(lp8
I505
aF1
aa(lp9
I507
aF1
aa(lp10
I506
aF1
aa(lp11
I505
aF1
aa(lp12
I507
aF0.59999999999999998
aa(lp13
I506
aF0.5
aasI505
(lp14
(lp15
I504
aF1
aa(lp16
I507
aF0.59999999999999998
aa(lp17
I506
aF0.5
aasI506
(lp18
(lp19
I504
aF1
aa(lp20
I505
aF1
aasI507
(lp21
(lp22
I504
aF1
aa(lp23
I505
aF1
aasI-1
(lp24
I5978
aI5979
aI352
aI9451
aI5414
aI9433
aI5976
aI7170
aI355
aI9432
aI5413
aI6842
aI9404
aI5536
aI293
aI5415
aI5581
aI3838
aI3935
as.