(dp1
I5068
(lp2
(lp3
I5069
aF0.33333333333333331
aasI5069
(lp4
(lp5
I5073
aF1
aa(lp6
I5070
aF0.44444444444444442
aasI5070
(lp7
(lp8
I5073
aF1
aa(lp9
I5069
aF0.33333333333333331
aasI5072
(lp10
(lp11
I5074
aF0.375
aa(lp12
I5075
aF0.44444444444444442
aasI5073
(lp13
(lp14
I5073
aF1
aa(lp15
I5074
aF1
aa(lp16
I5069
aF1
aa(lp17
I5075
aF1
aa(lp18
I5371
aF1
aa(lp19
I5368
aF1
aa(lp20
I5070
aF1
aa(lp21
I5074
aF0.375
aa(lp22
I5069
aF0.33333333333333331
aa(lp23
I5075
aF0.44444444444444442
aa(lp24
I5070
aF0.44444444444444442
aasI5074
(lp25
(lp26
I5073
aF1
aa(lp27
I5075
aF0.44444444444444442
aa(lp28
I5070
aF0.44444444444444442
aasI5075
(lp29
(lp30
I5073
aF1
aa(lp31
I5074
aF0.375
aasI5368
(lp32
(lp33
I5073
aF1
aasI5371
(lp34
(lp35
I5073
aF1
aasI-1
(lp36
I5370
aI5359
aI5128
aI5357
aI4949
aI5129
aI5358
aI5037
aI5130
aI6124
aI5195
aI5856
aI5131
aI4948
aI5858
aI5849
as.