(dp1
I6530
(lp2
(lp3
I511
aF0.40000000000000002
aa(lp4
I4604
aF0.80000000000000004
aasI510
(lp5
(lp6
I511
aF0.40000000000000002
aasI4604
(lp7
(lp8
I509
aF1
aasI509
(lp9
(lp10
I509
aF1
aa(lp11
I511
aF1
aa(lp12
I4604
aF1
aa(lp13
I511
aF0.40000000000000002
aa(lp14
I4604
aF0.80000000000000004
aasI-1
(lp15
I6528
aI9154
aI8193
aI508
aI8195
aI8192
aI6529
aI4605
aI4607
aI8194
aI5571
aI1853
aI3930
aI8994
aI6129
aI3923
aI1674
aI8896
aI4003
aI1673
asI511
(lp16
(lp17
I509
aF1
aa(lp18
I4604
aF0.80000000000000004
aas.