(dp1
I5104
(lp2
(lp3
I5116
aF0.5
aasI-1
(lp4
I5105
aI5106
aI5831
aI5100
aI5830
aI5224
aI5187
aI5221
aI5365
aI5126
aI5829
aI5127
aI5086
aI5053
aI4937
aI5167
aI5169
aI5056
aI4936
aI5171
aI4938
asI5116
(lp5
(lp6
I5118
aF1
aasI5117
(lp7
(lp8
I5116
aF0.5
aasI5118
(lp9
(lp10
I5118
aF1
aa(lp11
I5116
aF1
aa(lp12
I5116
aF0.5
aas.