(dp1
I5187
(lp2
(lp3
I5181
aF0.5
aasI5180
(lp4
(lp5
I5180
aF1
aa(lp6
I5181
aF1
aa(lp7
I5181
aF0.5
aasI5181
(lp8
(lp9
I5180
aF1
aasI-1
(lp10
I5171
aI5173
aI5168
aI5174
aI5080
aI5190
aI5073
aI5178
aI5172
aI5083
aI5081
aI5072
aI5177
aI5170
aI5183
aI5169
aI5179
aI5082
aI5184
aI5074
aI5185
asI5189
(lp11
(lp12
I5181
aF0.5
aas.