(dp1
I520
(lp2
(lp3
I520
aF1
aa(lp4
I523
aF1
aa(lp5
I521
aF1
aa(lp6
I523
aF0.75
aa(lp7
I521
aF1
aasI521
(lp8
(lp9
I520
aF1
aa(lp10
I523
aF0.75
aasI522
(lp11
(lp12
I523
aF0.75
aa(lp13
I521
aF1
aasI523
(lp14
(lp15
I520
aF1
aa(lp16
I521
aF1
aasI-1
(lp17
I3362
aI7678
aI421
aI414
aI412
aI8827
aI9475
aI1253
aI965
aI1646
aI3365
aI3913
aI413
aI7677
aI3363
aI5382
aI1252
aI420
aI1230
aI966
aI3364
as.