(dp1
I4298
(lp2
(lp3
I5231
aF0.5
aasI5228
(lp4
(lp5
I5228
aF1
aa(lp6
I5231
aF1
aa(lp7
I5231
aF0.5
aasI-1
(lp8
I5262
aI5114
aI5045
aI5229
aI5278
aI5062
aI5054
aI5066
aI5119
aI5110
aI5237
aI5277
aI5060
aI5053
aI5061
aI5109
aI5425
aI5111
aI5376
aI5239
aI1920
asI5230
(lp9
(lp10
I5231
aF0.5
aasI5231
(lp11
(lp12
I5228
aF1
aas.