(dp1
I5288
(lp2
(lp3
I5242
aF0.59999999999999998
aasI5240
(lp4
(lp5
I5243
aF1
aa(lp6
I5241
aF1
aasI5241
(lp7
(lp8
I5243
aF1
aa(lp9
I5242
aF0.59999999999999998
aa(lp10
I5240
aF0.80000000000000004
aasI5242
(lp11
(lp12
I5243
aF1
aa(lp13
I5241
aF1
aa(lp14
I5240
aF0.80000000000000004
aasI5243
(lp15
(lp16
I5243
aF1
aa(lp17
I5241
aF1
aa(lp18
I5242
aF1
aa(lp19
I5240
aF1
aa(lp20
I5241
aF1
aa(lp21
I5242
aF0.59999999999999998
aa(lp22
I5240
aF0.80000000000000004
aasI-1
(lp23
I5353
aI5859
aI5355
aI5352
aI5354
aI5193
aI5158
aI5217
aI5101
aI5856
aI5033
aI5351
aI5858
aI5102
aI5100
aI5103
aI5115
aI5857
aI5201
aI5855
aI5032
as.