(dp1
I6156
(lp2
(lp3
I5406
aF0.5
aasI-1
(lp4
I5253
aI5435
aI5434
aI5740
aI6089
aI6157
aI5415
aI5433
aI5423
aI5886
aI5202
aI5407
aI5348
aI5254
aI5743
aI5982
aI5742
aI6159
aI5741
aI6155
aI5981
aI3541
asI5252
(lp5
(lp6
I5252
aF1
aa(lp7
I5406
aF1
aa(lp8
I5406
aF0.5
aasI5405
(lp9
(lp10
I5406
aF0.5
aasI5406
(lp11
(lp12
I5252
aF1
aas.