(dp1
I5288
(lp2
(lp3
I5290
aF1
aa(lp4
I5289
aF0.80000000000000004
aasI5289
(lp5
(lp6
I5290
aF1
aa(lp7
I5291
aF0.59999999999999998
aa(lp8
I5288
aF0.80000000000000004
aasI5290
(lp9
(lp10
I5290
aF1
aa(lp11
I5291
aF1
aa(lp12
I5289
aF1
aa(lp13
I5288
aF1
aa(lp14
I5291
aF0.59999999999999998
aa(lp15
I5289
aF0.80000000000000004
aa(lp16
I5288
aF0.80000000000000004
aasI5291
(lp17
(lp18
I5290
aF1
aa(lp19
I5289
aF0.80000000000000004
aa(lp20
I5288
aF0.80000000000000004
aasI5329
(lp21
(lp22
I5291
aF0.59999999999999998
aasI-1
(lp23
I5579
aI4595
aI3362
aI5578
aI5328
aI5577
aI5212
aI5319
aI5318
aI3361
aI6944
aI9055
aI5428
aI5345
aI1371
aI5417
aI3349
aI5311
aI9766
aI3363
as.