(dp1
I6912
(lp2
(lp3
I5298
aF0.59999999999999998
aa(lp4
I5296
aF0.80000000000000004
aasI5296
(lp5
(lp6
I5299
aF1
aa(lp7
I5298
aF0.59999999999999998
aa(lp8
I5297
aF0.80000000000000004
aasI5297
(lp9
(lp10
I5299
aF1
aasI5298
(lp11
(lp12
I5299
aF1
aa(lp13
I5296
aF0.80000000000000004
aa(lp14
I5297
aF0.80000000000000004
aasI5299
(lp15
(lp16
I5299
aF1
aa(lp17
I5298
aF1
aa(lp18
I5296
aF1
aa(lp19
I5297
aF1
aa(lp20
I5298
aF0.59999999999999998
aa(lp21
I5296
aF0.80000000000000004
aa(lp22
I5297
aF0.80000000000000004
aasI-1
(lp23
I5336
aI6527
aI5018
aI1964
aI5017
aI6323
aI6187
aI8931
aI1965
aI8298
aI4434
aI138
aI6915
aI5016
aI6185
aI5512
aI3954
aI4394
aI3699
aI5399
as.