(dp1
I5280
(lp2
(lp3
I5318
aF1
aasI5316
(lp4
(lp5
I5318
aF1
aa(lp6
I5319
aF0.80000000000000004
aa(lp7
I5317
aF0.80000000000000004
aasI5317
(lp8
(lp9
I5318
aF1
aa(lp10
I5316
aF0.80000000000000004
aa(lp11
I5319
aF0.80000000000000004
aasI5318
(lp12
(lp13
I5318
aF1
aa(lp14
I5316
aF1
aa(lp15
I5319
aF1
aa(lp16
I5317
aF1
aa(lp17
I5280
aF1
aa(lp18
I5316
aF0.80000000000000004
aa(lp19
I5319
aF0.80000000000000004
aa(lp20
I5317
aF0.80000000000000004
aasI5319
(lp21
(lp22
I5318
aF1
aa(lp23
I5316
aF0.80000000000000004
aa(lp24
I5317
aF0.80000000000000004
aasI-1
(lp25
I5282
aI5173
aI5188
aI5281
aI5559
aI5283
aI5185
aI5552
aI5170
aI5172
aI5344
aI5177
aI5269
aI5321
aI5293
aI5320
aI5105
aI5034
aI5187
aI5345
as.