(dp1
I5130
(lp2
(lp3
I5394
aF0.42857142857142855
aasI5356
(lp4
(lp5
I5356
aF1
aa(lp6
I5359
aF1
aa(lp7
I5358
aF1
aa(lp8
I5357
aF1
aa(lp9
I5394
aF1
aa(lp10
I5393
aF1
aa(lp11
I5359
aF0.66666666666666663
aa(lp12
I5358
aF0.66666666666666663
aa(lp13
I5357
aF0.66666666666666663
aa(lp14
I5394
aF0.42857142857142855
aa(lp15
I5393
aF0.5714285714285714
aasI5357
(lp16
(lp17
I5356
aF1
aa(lp18
I5359
aF0.66666666666666663
aa(lp19
I5358
aF0.66666666666666663
aasI5358
(lp20
(lp21
I5356
aF1
aa(lp22
I5359
aF0.66666666666666663
aa(lp23
I5357
aF0.66666666666666663
aa(lp24
I5393
aF0.5714285714285714
aasI5359
(lp25
(lp26
I5356
aF1
aa(lp27
I5358
aF0.66666666666666663
aa(lp28
I5357
aF0.66666666666666663
aasI5393
(lp29
(lp30
I5356
aF1
aa(lp31
I5394
aF0.42857142857142855
aasI5394
(lp32
(lp33
I5356
aF1
aa(lp34
I5393
aF0.5714285714285714
aasI-1
(lp35
I5128
aI5131
aI5129
aI5075
aI5043
aI5388
aI5068
aI5037
aI5391
aI5069
aI5038
aI5078
aI5390
aI5073
aI5039
aI5370
aI5036
aI5077
as.