(dp1
I5220
(lp2
(lp3
I5365
aF1
aasI5221
(lp4
(lp5
I5220
aF0.40000000000000002
aasI5223
(lp6
(lp7
I5220
aF0.40000000000000002
aasI3983
(lp8
(lp9
I5365
aF1
aasI5365
(lp10
(lp11
I5365
aF1
aa(lp12
I5220
aF1
aa(lp13
I3983
aF1
aa(lp14
I5220
aF0.40000000000000002
aasI-1
(lp15
I5224
aI5116
aI3138
aI5118
aI5830
aI8802
aI5829
aI3072
aI3077
aI5186
aI3301
aI3139
aI3136
aI3075
aI3137
aI5828
aI5187
aI5171
aI6977
aI3074
aI3062
as.