(dp1
I707
(lp2
(lp3
I5371
aF0.40000000000000002
aasI1905
(lp4
(lp5
I5371
aF0.40000000000000002
aasI5368
(lp6
(lp7
I5370
aF1
aasI5370
(lp8
(lp9
I5370
aF1
aa(lp10
I5371
aF1
aa(lp11
I5368
aF1
aa(lp12
I5371
aF0.40000000000000002
aasI5371
(lp13
(lp14
I5370
aF1
aasI-1
(lp15
I9522
aI3494
aI8461
aI8145
aI5581
aI8126
aI7370
aI3088
aI8413
aI3481
aI8168
aI705
aI3078
aI3480
aI8520
aI8581
aI8441
aI8442
aI3081
aI3495
aI704
as.