(dp1
I5368
(lp2
(lp3
I5370
aF1
aa(lp4
I5371
aF0.75
aasI5073
(lp5
(lp6
I5371
aF0.75
aa(lp7
I5368
aF1
aasI5370
(lp8
(lp9
I5370
aF1
aa(lp10
I5371
aF1
aa(lp11
I5368
aF1
aa(lp12
I5371
aF0.75
aa(lp13
I5368
aF1
aasI5371
(lp14
(lp15
I5370
aF1
aa(lp16
I5368
aF1
aasI-1
(lp17
I5075
aI5037
aI5068
aI5388
aI5128
aI5074
aI5130
aI5359
aI5072
aI5393
aI5051
aI5038
aI5129
aI5357
aI5048
aI5131
aI5036
aI5039
aI5047
aI5069
aI5078
as.