(dp1
I5393
(lp2
(lp3
I5394
aF1
aasI5394
(lp4
(lp5
I5394
aF1
aa(lp6
I5393
aF1
aa(lp7
I5393
aF0.5
aasI5356
(lp8
(lp9
I5393
aF0.5
aasI-1
(lp10
I5130
aI5388
aI5357
aI5359
aI5068
aI5131
aI5391
aI5069
aI5075
aI5390
aI5128
aI5129
aI5370
aI5035
aI5032
aI5355
aI5831
aI5438
aI5371
aI5043
aI5353
asI5358
(lp11
(lp12
I5393
aF0.5
aas.