(dp1
I5392
(lp2
(lp3
I5395
aF1
aasI4665
(lp4
(lp5
I5392
aF0.5
aasI5395
(lp6
(lp7
I5395
aF1
aa(lp8
I5392
aF1
aa(lp9
I5392
aF0.5
aasI5112
(lp10
(lp11
I5392
aF0.5
aasI-1
(lp12
I5295
aI6857
aI5206
aI5384
aI6859
aI5294
aI5385
aI5205
aI5163
aI5290
aI6085
aI5115
aI5703
aI5352
aI4667
aI5272
aI5161
aI5273
aI5289
aI5354
aI5557
as.