(dp1
I6291
(lp2
(lp3
I5400
aF1
aasI5400
(lp4
(lp5
I5400
aF1
aa(lp6
I5401
aF1
aa(lp7
I5402
aF1
aa(lp8
I5403
aF1
aa(lp9
I6291
aF1
aa(lp10
I5401
aF0.80000000000000004
aa(lp11
I5402
aF0.80000000000000004
aa(lp12
I5403
aF0.80000000000000004
aasI5401
(lp13
(lp14
I5400
aF1
aa(lp15
I5402
aF0.80000000000000004
aa(lp16
I5403
aF0.80000000000000004
aasI5402
(lp17
(lp18
I5400
aF1
aa(lp19
I5401
aF0.80000000000000004
aa(lp20
I5403
aF0.80000000000000004
aasI5403
(lp21
(lp22
I5400
aF1
aa(lp23
I5401
aF0.80000000000000004
aa(lp24
I5402
aF0.80000000000000004
aasI-1
(lp25
I1052
aI9473
aI6946
aI6790
aI9472
aI2066
aI2150
aI1019
aI6290
aI8274
aI8273
aI5032
aI6059
aI5331
aI5328
aI1378
aI1053
aI4597
aI1379
aI1376
as.