(dp1
I5424
(lp2
(lp3
I5424
aF1
aa(lp4
I5427
aF1
aa(lp5
I5425
aF1
aa(lp6
I5426
aF1
aa(lp7
I5463
aF1
aa(lp8
I5427
aF0.80000000000000004
aa(lp9
I5425
aF0.80000000000000004
aa(lp10
I5426
aF0.80000000000000004
aasI5425
(lp11
(lp12
I5424
aF1
aa(lp13
I5427
aF0.80000000000000004
aa(lp14
I5426
aF0.80000000000000004
aasI5426
(lp15
(lp16
I5424
aF1
aa(lp17
I5427
aF0.80000000000000004
aa(lp18
I5425
aF0.80000000000000004
aasI5427
(lp19
(lp20
I5424
aF1
aa(lp21
I5425
aF0.80000000000000004
aa(lp22
I5426
aF0.80000000000000004
aasI5463
(lp23
(lp24
I5424
aF1
aasI-1
(lp25
I5531
aI4505
aI6061
aI4528
aI5528
aI5509
aI5511
aI4530
aI5898
aI5897
aI4529
aI4531
aI4507
aI5462
aI4504
aI5508
aI5899
aI5461
aI6063
aI4091
as.