(dp1
I5432
(lp2
(lp3
I5434
aF1
aa(lp4
I5435
aF1
aa(lp5
I5433
aF1
aasI5433
(lp6
(lp7
I5434
aF1
aa(lp8
I5432
aF1
aa(lp9
I5435
aF1
aasI5434
(lp10
(lp11
I5434
aF1
aa(lp12
I5432
aF1
aa(lp13
I5435
aF1
aa(lp14
I5433
aF1
aa(lp15
I5432
aF1
aa(lp16
I5435
aF1
aa(lp17
I5433
aF1
aasI5435
(lp18
(lp19
I5434
aF1
aa(lp20
I5432
aF1
aa(lp21
I5433
aF1
aasI-1
(lp22
I6803
aI9776
aI8145
aI8017
aI9932
aI40
aI9947
aI9778
aI9934
aI6802
aI1999
aI655
aI9777
aI9933
aI7406
aI9904
aI1997
aI8451
aI3105
aI10
aI8978
as.