(dp1
I544
(lp2
(lp3
I545
aF1
aa(lp4
I546
aF0.59999999999999998
aasI545
(lp5
(lp6
I545
aF1
aa(lp7
I544
aF1
aa(lp8
I546
aF1
aa(lp9
I544
aF0.75
aa(lp10
I546
aF0.59999999999999998
aasI546
(lp11
(lp12
I545
aF1
aa(lp13
I544
aF0.75
aasI547
(lp14
(lp15
I546
aF0.59999999999999998
aasI1870
(lp16
(lp17
I544
aF0.75
aasI-1
(lp18
I974
aI7739
aI3563
aI4340
aI742
aI3230
aI1924
aI7016
aI1869
aI8066
aI411
aI4342
aI8064
aI2099
aI3734
aI4916
aI7103
aI1868
aI8392
aI8099
as.