(dp1
I-1
(lp2
I5535
aI5539
aI5533
aI4089
aI4088
aI4091
aI4090
aI5511
aI5510
aI5534
aI5509
aI5538
aI5485
aI5160
aI5521
aI5151
aI5487
aI5517
aI5530
aI5899
aI5518
aI5508
aI5898
aI5532
asI5486
(lp3
(lp4
I5486
aF1
aas.