(dp1
I4226
(lp2
(lp3
I5484
aF0.59999999999999998
aasI5484
(lp4
(lp5
I5487
aF1
aa(lp6
I5485
aF0.75
aasI5485
(lp7
(lp8
I5487
aF1
aa(lp9
I5484
aF0.59999999999999998
aasI5486
(lp10
(lp11
I5485
aF0.75
aasI5487
(lp12
(lp13
I5487
aF1
aa(lp14
I5485
aF1
aa(lp15
I5484
aF1
aa(lp16
I5485
aF0.75
aa(lp17
I5484
aF0.59999999999999998
aasI-1
(lp18
I4023
aI4089
aI4088
aI4020
aI4022
aI5508
aI4091
aI4090
aI4021
aI4896
aI5899
aI6855
aI5898
aI4897
aI6379
aI5538
aI5135
aI5133
aI4533
aI5511
aI4534
as.