(dp1
I5488
(lp2
(lp3
I5488
aF1
aa(lp4
I5489
aF1
aa(lp5
I5489
aF0.5
aasI5489
(lp6
(lp7
I5488
aF1
aasI-1
(lp8
I5494
aI9868
aI9871
aI6006
aI7834
aI5495
aI7833
aI7835
aI5492
aI6007
aI6005
aI6107
aI3828
aI5505
aI8193
aI6004
aI5490
aI6764
aI5493
aI6766
aI6767
asI9869
(lp9
(lp10
I5489
aF0.5
aasI9870
(lp11
(lp12
I5489
aF0.5
aas.