(dp1
I10178
(lp2
(lp3
I550
aF0.59999999999999998
aasI10179
(lp4
(lp5
I548
aF0.75
aasI548
(lp6
(lp7
I549
aF1
aa(lp8
I550
aF0.59999999999999998
aasI549
(lp9
(lp10
I549
aF1
aa(lp11
I548
aF1
aa(lp12
I550
aF1
aa(lp13
I548
aF0.75
aa(lp14
I550
aF0.59999999999999998
aasI550
(lp15
(lp16
I549
aF1
aa(lp17
I548
aF0.75
aasI-1
(lp18
I10177
aI10176
aI551
aI9981
aI185
aI9980
aI186
aI184
aI9982
aI4849
aI187
aI676
aI5340
aI4375
aI632
aI10090
aI679
aI9983
aI677
aI10018
as.