(dp1
I5780
(lp2
(lp3
I5497
aF0.59999999999999998
aasI5783
(lp4
(lp5
I5496
aF0.5
aasI5496
(lp6
(lp7
I5498
aF1
aa(lp8
I5499
aF0.66666666666666663
aasI5497
(lp9
(lp10
I5498
aF1
aa(lp11
I5499
aF0.66666666666666663
aasI5498
(lp12
(lp13
I5498
aF1
aa(lp14
I5497
aF1
aa(lp15
I5496
aF1
aa(lp16
I5499
aF1
aa(lp17
I5497
aF0.59999999999999998
aa(lp18
I5496
aF0.5
aa(lp19
I5499
aF0.66666666666666663
aasI5499
(lp20
(lp21
I5498
aF1
aa(lp22
I5497
aF0.59999999999999998
aa(lp23
I5496
aF0.5
aasI-1
(lp24
I7000
aI6994
aI6865
aI6992
aI7021
aI4039
aI4038
aI7002
aI94
aI4037
aI5781
aI5407
aI310
aI4026
aI7065
aI538
aI6101
aI6163
aI6993
aI6056
as.