(dp1
I-1
(lp2
I5515
aI5514
aI5513
aI5509
aI5510
aI5508
aI5512
aI7084
aI6118
aI6119
aI3792
aI5511
aI3794
aI6116
aI5833
aI6568
aI6152
aI8640
aI6117
aI3766
aI7775
asI5516
(lp3
(lp4
I5517
aF1
aa(lp5
I5519
aF1
aa(lp6
I5518
aF1
aasI5517
(lp7
(lp8
I5517
aF1
aa(lp9
I5516
aF1
aa(lp10
I5519
aF1
aa(lp11
I5518
aF1
aa(lp12
I5516
aF1
aa(lp13
I5519
aF1
aa(lp14
I5518
aF1
aasI5518
(lp15
(lp16
I5517
aF1
aa(lp17
I5516
aF1
aa(lp18
I5519
aF1
aasI5519
(lp19
(lp20
I5517
aF1
aa(lp21
I5516
aF1
aa(lp22
I5518
aF1
aas.