(dp1
I552
(lp2
(lp3
I555
aF0.59999999999999998
aasI553
(lp4
(lp5
I553
aF1
aa(lp6
I554
aF1
aa(lp7
I555
aF1
aa(lp8
I554
aF0.75
aa(lp9
I555
aF0.59999999999999998
aasI554
(lp10
(lp11
I553
aF1
aa(lp12
I555
aF0.59999999999999998
aasI555
(lp13
(lp14
I553
aF1
aa(lp15
I554
aF0.75
aasI3354
(lp16
(lp17
I554
aF0.75
aasI-1
(lp18
I156
aI157
aI159
aI224
aI533
aI226
aI158
aI222
aI536
aI314
aI225
aI3355
aI8651
aI3353
aI223
aI7548
aI7064
aI7065
aI230
aI3352
as.