(dp1
I5552
(lp2
(lp3
I5552
aF1
aa(lp4
I5554
aF1
aa(lp5
I5553
aF1
aa(lp6
I5558
aF1
aa(lp7
I5559
aF1
aa(lp8
I5554
aF0.5
aa(lp9
I5553
aF0.66666666666666663
aa(lp10
I5558
aF0.66666666666666663
aa(lp11
I5559
aF0.66666666666666663
aasI5553
(lp12
(lp13
I5552
aF1
aa(lp14
I5554
aF0.5
aa(lp15
I5559
aF0.66666666666666663
aasI5554
(lp16
(lp17
I5552
aF1
aa(lp18
I5553
aF0.66666666666666663
aa(lp19
I5558
aF0.66666666666666663
aasI5555
(lp20
(lp21
I5554
aF0.5
aa(lp22
I5553
aF0.66666666666666663
aa(lp23
I5558
aF0.66666666666666663
aa(lp24
I5559
aF0.66666666666666663
aasI5558
(lp25
(lp26
I5552
aF1
aasI5559
(lp27
(lp28
I5552
aF1
aasI-1
(lp29
I5032
aI5178
aI5191
aI5317
aI5319
aI5035
aI5173
aI5150
aI5117
aI5190
aI5318
aI5172
aI5162
aI5100
aI5502
aI5189
aI5283
aI5149
aI5105
as.