(dp1
I5576
(lp2
(lp3
I5579
aF1
aa(lp4
I5578
aF1
aa(lp5
I5577
aF1
aasI5577
(lp6
(lp7
I5579
aF1
aa(lp8
I5578
aF1
aa(lp9
I5576
aF1
aasI5578
(lp10
(lp11
I5579
aF1
aa(lp12
I5577
aF1
aa(lp13
I5576
aF1
aasI5579
(lp14
(lp15
I5579
aF1
aa(lp16
I5578
aF1
aa(lp17
I5577
aF1
aa(lp18
I5576
aF1
aa(lp19
I5578
aF1
aa(lp20
I5577
aF1
aa(lp21
I5576
aF1
aasI-1
(lp22
I5291
aI5290
aI5289
aI5428
aI1498
aI5414
aI2281
aI4779
aI4912
aI4913
aI4598
aI5155
aI5344
aI1666
aI5430
aI2280
aI5345
aI5119
aI5124
aI5431
aI5288
as.