(dp1
I5601
(lp2
(lp3
I5602
aF0.33333333333333331
aa(lp4
I5597
aF0.5714285714285714
aasI5602
(lp5
(lp6
I5603
aF1
aasI5603
(lp7
(lp8
I5603
aF1
aa(lp9
I5602
aF1
aa(lp10
I5599
aF1
aa(lp11
I5597
aF1
aa(lp12
I5602
aF0.33333333333333331
aa(lp13
I5599
aF0.42857142857142855
aa(lp14
I5597
aF0.5714285714285714
aasI-1
(lp15
I5600
aI5925
aI5927
aI5455
aI5924
aI6048
aI5926
aI5965
aI3485
aI6051
aI3484
aI6049
aI6050
aI3486
aI5964
aI5453
aI3988
aI5966
asI5596
(lp16
(lp17
I5602
aF0.33333333333333331
aa(lp18
I5599
aF0.42857142857142855
aa(lp19
I5597
aF0.5714285714285714
aasI5597
(lp20
(lp21
I5603
aF1
aasI5598
(lp22
(lp23
I5599
aF0.42857142857142855
aasI5599
(lp24
(lp25
I5603
aF1
aas.