(dp1
I4896
(lp2
(lp3
I5616
aF0.59999999999999998
aa(lp4
I5617
aF0.5
aasI4897
(lp5
(lp6
I5618
aF0.42857142857142855
aasI5616
(lp7
(lp8
I5619
aF1
aa(lp9
I5618
aF0.42857142857142855
aasI5617
(lp10
(lp11
I5619
aF1
aasI5618
(lp12
(lp13
I5619
aF1
aa(lp14
I5616
aF0.59999999999999998
aasI5619
(lp15
(lp16
I5619
aF1
aa(lp17
I5616
aF1
aa(lp18
I5617
aF1
aa(lp19
I5618
aF1
aa(lp20
I5616
aF0.59999999999999998
aa(lp21
I5617
aF0.5
aa(lp22
I5618
aF0.42857142857142855
aasI4893
(lp23
(lp24
I5617
aF0.5
aasI-1
(lp25
I4892
aI4849
aI4899
aI5675
aI4524
aI4927
aI4339
aI6019
aI4672
aI4926
aI5673
aI4611
aI4608
aI4959
aI4525
aI4957
aI4575
aI4673
as.