(dp1
I5680
(lp2
(lp3
I5680
aF1
aa(lp4
I5681
aF1
aa(lp5
I5681
aF0.5
aasI5681
(lp6
(lp7
I5680
aF1
aasI-1
(lp8
I5684
aI5669
aI5687
aI5671
aI5670
aI5658
aI5656
aI5663
aI5660
aI5668
aI5683
aI5657
aI5662
aI5659
aI5705
aI5648
aI4694
aI5706
aI4688
aI4695
aI4019
asI5685
(lp9
(lp10
I5681
aF0.5
aasI5686
(lp11
(lp12
I5681
aF0.5
aas.