(dp1
I5704
(lp2
(lp3
I5706
aF1
aa(lp4
I5705
aF1
aa(lp5
I5707
aF1
aasI5705
(lp6
(lp7
I5706
aF1
aa(lp8
I5707
aF1
aa(lp9
I5704
aF1
aasI5706
(lp10
(lp11
I5706
aF1
aa(lp12
I5705
aF1
aa(lp13
I5707
aF1
aa(lp14
I5704
aF1
aa(lp15
I5705
aF1
aa(lp16
I5707
aF1
aa(lp17
I5704
aF1
aasI5707
(lp18
(lp19
I5706
aF1
aa(lp20
I5705
aF1
aa(lp21
I5704
aF1
aasI-1
(lp22
I8283
aI6422
aI2561
aI1965
aI8280
aI2571
aI841
aI798
aI4218
aI6465
aI5810
aI2563
aI2552
aI799
aI4217
aI2576
aI4872
aI797
aI8282
aI10110
aI2568
as.