(dp1
I2021
(lp2
(lp3
I5740
aF0.5
aasI2023
(lp4
(lp5
I5743
aF0.59999999999999998
aa(lp6
I5741
aF0.80000000000000004
aasI5740
(lp7
(lp8
I5742
aF1
aasI5741
(lp9
(lp10
I5742
aF1
aa(lp11
I5743
aF0.59999999999999998
aa(lp12
I5740
aF0.5
aasI5742
(lp13
(lp14
I5742
aF1
aa(lp15
I5743
aF1
aa(lp16
I5741
aF1
aa(lp17
I5740
aF1
aa(lp18
I5743
aF0.59999999999999998
aa(lp19
I5741
aF0.80000000000000004
aa(lp20
I5740
aF0.5
aasI5743
(lp21
(lp22
I5742
aF1
aa(lp23
I5741
aF0.80000000000000004
aasI-1
(lp24
I2022
aI2020
aI10110
aI10109
aI6117
aI6116
aI6118
aI642
aI6153
aI6119
aI641
aI6501
aI698
aI8643
aI643
aI6155
aI6152
aI8641
aI251
as.