(dp1
I576
(lp2
(lp3
I579
aF1
aa(lp4
I578
aF1
aasI577
(lp5
(lp6
I579
aF1
aa(lp7
I578
aF1
aa(lp8
I576
aF0.80000000000000004
aasI578
(lp9
(lp10
I579
aF1
aa(lp11
I577
aF0.59999999999999998
aa(lp12
I576
aF0.80000000000000004
aasI579
(lp13
(lp14
I579
aF1
aa(lp15
I578
aF1
aa(lp16
I577
aF1
aa(lp17
I576
aF1
aa(lp18
I578
aF1
aa(lp19
I577
aF0.59999999999999998
aa(lp20
I576
aF0.80000000000000004
aasI582
(lp21
(lp22
I577
aF0.59999999999999998
aasI-1
(lp23
I581
aI580
aI680
aI683
aI681
aI682
aI718
aI3937
aI719
aI4350
aI716
aI583
aI3939
aI5511
aI1953
aI1955
aI3938
aI6115
aI1952
aI592
as.