(dp1
I5804
(lp2
(lp3
I5805
aF1
aasI5805
(lp4
(lp5
I5805
aF1
aa(lp6
I5804
aF1
aa(lp7
I5806
aF1
aa(lp8
I5804
aF0.40000000000000002
aasI5806
(lp9
(lp10
I5805
aF1
aasI5807
(lp11
(lp12
I5804
aF0.40000000000000002
aasI5808
(lp13
(lp14
I5804
aF0.40000000000000002
aasI-1
(lp15
I5860
aI5863
aI5467
aI5466
aI5151
aI4781
aI5150
aI5160
aI4801
aI5149
aI5574
aI6465
aI4902
aI5237
aI5464
aI4802
aI6467
aI5132
aI4950
aI6464
aI5278
as.