(dp1
I5812
(lp2
(lp3
I5815
aF1
aa(lp4
I5813
aF0.80000000000000004
aa(lp5
I5814
aF0.80000000000000004
aasI5813
(lp6
(lp7
I5815
aF1
aa(lp8
I5814
aF0.80000000000000004
aa(lp9
I5812
aF0.80000000000000004
aasI5814
(lp10
(lp11
I5815
aF1
aa(lp12
I5813
aF0.80000000000000004
aa(lp13
I5812
aF0.80000000000000004
aasI5815
(lp14
(lp15
I5815
aF1
aa(lp16
I5813
aF1
aa(lp17
I5814
aF1
aa(lp18
I5812
aF1
aa(lp19
I5788
aF1
aa(lp20
I5813
aF0.80000000000000004
aa(lp21
I5814
aF0.80000000000000004
aa(lp22
I5812
aF0.80000000000000004
aasI5788
(lp23
(lp24
I5815
aF1
aasI-1
(lp25
I2994
aI528
aI123
aI5882
aI120
aI5789
aI2993
aI5883
aI122
aI765
aI121
aI3295
aI4815
aI5768
aI4366
aI4365
aI4014
aI141
aI4013
aI818
as.