(dp1
I5896
(lp2
(lp3
I5899
aF1
aa(lp4
I5898
aF0.75
aasI5897
(lp5
(lp6
I5898
aF0.75
aa(lp7
I5896
aF1
aasI5898
(lp8
(lp9
I5899
aF1
aa(lp10
I5896
aF1
aasI5899
(lp11
(lp12
I5899
aF1
aa(lp13
I5898
aF1
aa(lp14
I5896
aF1
aa(lp15
I5898
aF0.75
aa(lp16
I5896
aF1
aasI-1
(lp17
I5162
aI5161
aI5160
aI5151
aI4091
aI5150
aI5539
aI5149
aI4089
aI5163
aI4090
aI5538
aI4088
aI5535
aI4298
aI5148
aI5528
aI5511
aI5531
aI1912
aI5133
as.