(dp1
I7617
(lp2
(lp3
I5941
aF0.75
aasI5842
(lp4
(lp5
I5943
aF0.59999999999999998
aasI5941
(lp6
(lp7
I5942
aF1
aa(lp8
I5943
aF0.59999999999999998
aasI5942
(lp9
(lp10
I5942
aF1
aa(lp11
I5941
aF1
aa(lp12
I5943
aF1
aa(lp13
I5941
aF0.75
aa(lp14
I5943
aF0.59999999999999998
aasI5943
(lp15
(lp16
I5942
aF1
aa(lp17
I5941
aF0.75
aasI-1
(lp18
I5966
aI5967
aI5838
aI5841
aI7619
aI5847
aI5835
aI5886
aI5982
aI1900
aI5834
aI5414
aI1980
aI7003
aI5974
aI3625
aI7170
aI5845
aI5833
aI7618
as.