(dp1
I5965
(lp2
(lp3
I5972
aF0.59999999999999998
aasI5972
(lp4
(lp5
I5975
aF1
aa(lp6
I5974
aF0.80000000000000004
aa(lp7
I5973
aF0.80000000000000004
aasI5973
(lp8
(lp9
I5975
aF1
aa(lp10
I5974
aF0.80000000000000004
aasI5974
(lp11
(lp12
I5975
aF1
aa(lp13
I5972
aF0.59999999999999998
aa(lp14
I5973
aF0.80000000000000004
aasI5975
(lp15
(lp16
I5975
aF1
aa(lp17
I5972
aF1
aa(lp18
I5974
aF1
aa(lp19
I5973
aF1
aa(lp20
I5972
aF0.59999999999999998
aa(lp21
I5974
aF0.80000000000000004
aa(lp22
I5973
aF0.80000000000000004
aasI-1
(lp23
I5966
aI5981
aI5743
aI5967
aI2239
aI5982
aI5964
aI541
aI5406
aI5847
aI5980
aI3541
aI6102
aI5405
aI6158
aI6013
aI3540
aI6965
aI5252
aI5983
as.