(dp1
I5986
(lp2
(lp3
I5986
aF1
aa(lp4
I5987
aF1
aa(lp5
I5987
aF0.5
aasI5987
(lp6
(lp7
I5986
aF1
aasI-1
(lp8
I4664
aI5160
aI6969
aI4114
aI5580
aI3163
aI4665
aI5206
aI1914
aI6859
aI5703
aI4667
aI834
aI5384
aI4115
aI5392
aI5161
aI835
aI5204
aI8625
aI4222
asI6054
(lp9
(lp10
I5987
aF0.5
aasI6063
(lp11
(lp12
I5987
aF0.5
aas.