(dp1
I62
(lp2
(lp3
I60
aF1
aa(lp4
I63
aF0.80000000000000004
aa(lp5
I61
aF0.80000000000000004
aasI63
(lp6
(lp7
I60
aF1
aa(lp8
I62
aF0.80000000000000004
aa(lp9
I61
aF0.80000000000000004
aasI60
(lp10
(lp11
I60
aF1
aa(lp12
I62
aF1
aa(lp13
I63
aF1
aa(lp14
I61
aF1
aa(lp15
I9151
aF1
aa(lp16
I62
aF0.80000000000000004
aa(lp17
I63
aF0.80000000000000004
aa(lp18
I61
aF0.80000000000000004
aasI61
(lp19
(lp20
I60
aF1
aa(lp21
I62
aF0.80000000000000004
aa(lp22
I63
aF0.80000000000000004
aasI-1
(lp23
I1097
aI4741
aI7497
aI6905
aI9174
aI812
aI4428
aI3218
aI4242
aI8314
aI1934
aI8348
aI1605
aI9710
aI6352
aI3217
aI3662
aI9117
aI4229
aI2356
asI9151
(lp24
(lp25
I60
aF1
aas.