(dp1
I-1
(lp2
I6010
aI6008
aI6009
aI6011
aI5776
aI4155
aI6001
aI5778
aI5777
aI4152
aI5470
aI6007
aI6381
aI6139
aI5179
aI6002
aI7504
aI1430
aI6004
aI4153
aI2607
asI6012
(lp3
(lp4
I6014
aF1
aa(lp5
I6015
aF1
aa(lp6
I6013
aF1
aasI6013
(lp7
(lp8
I6014
aF1
aa(lp9
I6015
aF1
aa(lp10
I6012
aF1
aasI6014
(lp11
(lp12
I6014
aF1
aa(lp13
I6015
aF1
aa(lp14
I6013
aF1
aa(lp15
I6012
aF1
aa(lp16
I6015
aF1
aa(lp17
I6013
aF1
aa(lp18
I6012
aF1
aasI6015
(lp19
(lp20
I6014
aF1
aa(lp21
I6013
aF1
aa(lp22
I6012
aF1
aas.