(dp1
I6048
(lp2
(lp3
I6051
aF1
aa(lp4
I6050
aF0.80000000000000004
aa(lp5
I6049
aF0.80000000000000004
aasI6049
(lp6
(lp7
I6051
aF1
aa(lp8
I6050
aF0.80000000000000004
aa(lp9
I6048
aF0.80000000000000004
aa(lp10
I5452
aF0.5
aasI6050
(lp11
(lp12
I6051
aF1
aa(lp13
I6049
aF0.80000000000000004
aa(lp14
I6048
aF0.80000000000000004
aasI6051
(lp15
(lp16
I6051
aF1
aa(lp17
I6050
aF1
aa(lp18
I6049
aF1
aa(lp19
I6048
aF1
aa(lp20
I5452
aF1
aa(lp21
I6050
aF0.80000000000000004
aa(lp22
I6049
aF0.80000000000000004
aa(lp23
I6048
aF0.80000000000000004
aa(lp24
I5452
aF0.5
aasI5452
(lp25
(lp26
I6051
aF1
aasI5453
(lp27
(lp28
I5452
aF0.5
aasI-1
(lp29
I5455
aI5927
aI5924
aI5598
aI5925
aI5454
aI5926
aI5602
aI5603
aI5599
aI5600
aI5596
aI5862
aI5965
aI5601
aI786
aI784
aI5964
aI6465
as.