(dp1
I6053
(lp2
(lp3
I6059
aF0.40000000000000002
aasI6056
(lp4
(lp5
I6058
aF1
aasI6057
(lp6
(lp7
I6059
aF0.40000000000000002
aasI6058
(lp8
(lp9
I6058
aF1
aa(lp10
I6059
aF1
aa(lp11
I6056
aF1
aa(lp12
I6059
aF0.40000000000000002
aa(lp13
I6056
aF0.5
aasI6059
(lp14
(lp15
I6058
aF1
aa(lp16
I6056
aF0.5
aasI5933
(lp17
(lp18
I6056
aF0.5
aasI-1
(lp19
I6052
aI5931
aI5930
aI5536
aI5534
aI4639
aI6055
aI5537
aI5929
aI6054
aI5983
aI6001
aI5533
aI5935
aI5529
aI4583
aI5530
aI4582
aI6002
as.