(dp1
I-1
(lp2
I5402
aI6017
aI4624
aI6061
aI6019
aI834
aI2606
aI832
aI893
aI833
aI835
aI6063
aI4627
aI6563
aI595
aI4610
aI6060
aI859
aI2623
aI892
aI207
aI6907
asI6092
(lp3
(lp4
I6094
aF1
aasI6093
(lp5
(lp6
I6092
aF0.5
aasI6094
(lp7
(lp8
I6094
aF1
aa(lp9
I6092
aF1
aa(lp10
I6092
aF0.5
aasI6095
(lp11
(lp12
I6092
aF0.5
aas.