(dp1
I4025
(lp2
(lp3
I6103
aF0.5
aasI4026
(lp4
(lp5
I6103
aF0.5
aasI6101
(lp6
(lp7
I6101
aF1
aa(lp8
I6103
aF1
aa(lp9
I6103
aF0.5
aasI-1
(lp10
I5933
aI6056
aI6865
aI6100
aI4027
aI6102
aI4032
aI6897
aI7000
aI4029
aI6163
aI5536
aI4038
aI4033
aI4034
aI6992
aI6160
aI4037
aI4031
aI7021
aI6080
asI6103
(lp11
(lp12
I6101
aF1
aas.