(dp1
I6104
(lp2
(lp3
I6105
aF1
aa(lp4
I6107
aF1
aa(lp5
I6106
aF1
aasI6105
(lp6
(lp7
I6105
aF1
aa(lp8
I6107
aF1
aa(lp9
I6106
aF1
aa(lp10
I6104
aF1
aa(lp11
I6107
aF1
aa(lp12
I6106
aF1
aa(lp13
I6104
aF1
aasI6106
(lp14
(lp15
I6105
aF1
aa(lp16
I6107
aF1
aa(lp17
I6104
aF1
aasI6107
(lp18
(lp19
I6105
aF1
aa(lp20
I6106
aF1
aa(lp21
I6104
aF1
aasI-1
(lp22
I6005
aI6006
aI6007
aI6004
aI1444
aI5721
aI5947
aI3323
aI6533
aI5946
aI6577
aI1012
aI1445
aI3322
aI1429
aI1446
aI6146
aI5992
aI5470
aI2477
aI2993
as.