(dp1
I-1
(lp2
I6314
aI7471
aI6312
aI6166
aI6313
aI974
aI3318
aI3960
aI3317
aI6164
aI973
aI6315
aI3316
aI975
aI972
aI3961
aI6165
aI7450
aI207
aI3319
aI6167
asI6172
(lp3
(lp4
I6175
aF0.75
aa(lp5
I6174
aF1
aasI6173
(lp6
(lp7
I6173
aF1
aa(lp8
I6175
aF1
aa(lp9
I6174
aF1
aa(lp10
I6175
aF0.75
aa(lp11
I6174
aF1
aasI6174
(lp12
(lp13
I6173
aF1
aa(lp14
I6175
aF0.75
aasI6175
(lp15
(lp16
I6173
aF1
aa(lp17
I6174
aF1
aas.