(dp1
I4450
(lp2
(lp3
I6191
aF0.42857142857142855
aasI8905
(lp4
(lp5
I6189
aF0.5
aasI6188
(lp6
(lp7
I6188
aF1
aa(lp8
I6189
aF1
aa(lp9
I6190
aF1
aa(lp10
I6193
aF1
aa(lp11
I6191
aF1
aa(lp12
I6189
aF0.5
aa(lp13
I6190
aF0.66666666666666663
aa(lp14
I6191
aF0.42857142857142855
aasI6189
(lp15
(lp16
I6188
aF1
aa(lp17
I6190
aF0.66666666666666663
aasI6190
(lp18
(lp19
I6188
aF1
aa(lp20
I6189
aF0.5
aa(lp21
I6191
aF0.42857142857142855
aasI6191
(lp22
(lp23
I6188
aF1
aa(lp24
I6190
aF0.66666666666666663
aasI6193
(lp25
(lp26
I6188
aF1
aasI-1
(lp27
I6358
aI4608
aI6192
aI4247
aI4908
aI851
aI10189
aI6185
aI6356
aI4609
aI6357
aI5336
aI6353
aI735
aI4610
aI8875
aI733
aI6322
aI3553
as.