(dp1
I9159
(lp2
(lp3
I6239
aF1
aasI6238
(lp4
(lp5
I6237
aF0.59999999999999998
aa(lp6
I6236
aF0.80000000000000004
aasI6236
(lp7
(lp8
I6239
aF1
aa(lp9
I6237
aF0.59999999999999998
aasI6237
(lp10
(lp11
I6239
aF1
aa(lp12
I6236
aF0.80000000000000004
aasI-1
(lp13
I9048
aI9158
aI6303
aI9051
aI6302
aI6301
aI9156
aI2253
aI9020
aI2284
aI9050
aI653
aI652
aI1675
aI654
aI7429
aI9049
aI6333
aI655
aI9023
asI6239
(lp14
(lp15
I6239
aF1
aa(lp16
I6237
aF1
aa(lp17
I6236
aF1
aa(lp18
I9159
aF1
aa(lp19
I6237
aF0.59999999999999998
aa(lp20
I6236
aF0.80000000000000004
aas.