(dp1
I6248
(lp2
(lp3
I6251
aF0.75
aa(lp4
I6249
aF1
aasI6249
(lp5
(lp6
I6250
aF1
aa(lp7
I6251
aF0.75
aasI6250
(lp8
(lp9
I6250
aF1
aa(lp10
I6251
aF1
aa(lp11
I6249
aF1
aa(lp12
I6251
aF0.75
aa(lp13
I6249
aF1
aasI6251
(lp14
(lp15
I6250
aF1
aa(lp16
I6249
aF1
aasI-1
(lp17
I1922
aI1923
aI2260
aI2263
aI2261
aI4772
aI1879
aI4773
aI4774
aI4729
aI9075
aI4724
aI4727
aI5801
aI1920
aI1989
aI6252
aI9690
aI5763
aI6255
aI6254
aI4726
as.