(dp1
I6289
(lp2
(lp3
I6290
aF1
aa(lp4
I6291
aF0.80000000000000004
aasI6290
(lp5
(lp6
I6290
aF1
aa(lp7
I6291
aF1
aa(lp8
I6294
aF1
aa(lp9
I6289
aF1
aa(lp10
I6293
aF1
aa(lp11
I6291
aF0.80000000000000004
aa(lp12
I6294
aF0.5
aa(lp13
I6293
aF0.66666666666666663
aasI6291
(lp14
(lp15
I6290
aF1
aasI6292
(lp16
(lp17
I6294
aF0.5
aa(lp18
I6293
aF0.66666666666666663
aasI6293
(lp19
(lp20
I6290
aF1
aa(lp21
I6294
aF0.5
aasI6294
(lp22
(lp23
I6290
aF1
aa(lp24
I6291
aF0.80000000000000004
aa(lp25
I6293
aF0.66666666666666663
aasI-1
(lp26
I6288
aI6282
aI6281
aI631
aI4105
aI6295
aI10024
aI6016
aI7393
aI628
aI1938
aI3761
aI4224
aI4110
aI4226
aI9435
aI4106
aI4608
aI630
as.