(dp1
I6304
(lp2
(lp3
I6305
aF1
aa(lp4
I6306
aF0.59999999999999998
aa(lp5
I6307
aF0.80000000000000004
aasI6305
(lp6
(lp7
I6305
aF1
aa(lp8
I6306
aF1
aa(lp9
I6304
aF1
aa(lp10
I6307
aF1
aa(lp11
I6306
aF0.59999999999999998
aa(lp12
I6304
aF0.80000000000000004
aa(lp13
I6307
aF0.80000000000000004
aasI6306
(lp14
(lp15
I6305
aF1
aa(lp16
I6304
aF0.80000000000000004
aa(lp17
I6307
aF0.80000000000000004
aasI6307
(lp18
(lp19
I6305
aF1
aa(lp20
I6304
aF0.80000000000000004
aasI6309
(lp21
(lp22
I6306
aF0.59999999999999998
aasI-1
(lp23
I6308
aI6284
aI6310
aI6311
aI2962
aI6936
aI6285
aI4626
aI135
aI134
aI6276
aI242
aI6971
aI304
aI6298
aI6938
aI306
aI241
aI243
aI3216
as.