(dp1
I6308
(lp2
(lp3
I6310
aF1
aa(lp4
I6309
aF0.80000000000000004
aa(lp5
I6311
aF0.80000000000000004
aasI6309
(lp6
(lp7
I6310
aF1
aa(lp8
I6311
aF0.80000000000000004
aa(lp9
I6308
aF0.80000000000000004
aa(lp10
I6320
aF0.5
aasI6310
(lp11
(lp12
I6310
aF1
aa(lp13
I6309
aF1
aa(lp14
I6311
aF1
aa(lp15
I6308
aF1
aa(lp16
I6320
aF1
aa(lp17
I6309
aF0.80000000000000004
aa(lp18
I6311
aF0.80000000000000004
aa(lp19
I6308
aF0.80000000000000004
aa(lp20
I6320
aF0.5
aasI6311
(lp21
(lp22
I6310
aF1
aa(lp23
I6309
aF0.80000000000000004
aa(lp24
I6308
aF0.80000000000000004
aasI6320
(lp25
(lp26
I6310
aF1
aasI6321
(lp27
(lp28
I6320
aF0.5
aasI-1
(lp29
I8341
aI8342
aI5536
aI5533
aI737
aI5535
aI5528
aI8343
aI5537
aI8340
aI5531
aI8231
aI4906
aI1306
aI5538
aI5534
aI5532
aI9704
aI2065
aI1553
as.