(dp1
I6332
(lp2
(lp3
I6333
aF1
aa(lp4
I6334
aF0.5
aasI-1
(lp5
I8064
aI8392
aI4973
aI2093
aI8066
aI7103
aI3190
aI3204
aI5275
aI3935
aI1871
aI7101
aI6174
aI6328
aI3933
aI8067
aI8396
aI5274
aI6238
aI5273
asI6331
(lp6
(lp7
I6333
aF1
aasI6172
(lp8
(lp9
I6334
aF0.5
aasI6333
(lp10
(lp11
I6333
aF1
aa(lp12
I6332
aF1
aa(lp13
I6334
aF1
aa(lp14
I6331
aF1
aa(lp15
I6332
aF0.59999999999999998
aa(lp16
I6334
aF0.5
aasI6334
(lp17
(lp18
I6333
aF1
aa(lp19
I6332
aF0.59999999999999998
aasI6335
(lp20
(lp21
I6332
aF0.59999999999999998
aas.