(dp1
I5168
(lp2
(lp3
I6339
aF0.5
aasI6338
(lp4
(lp5
I6338
aF1
aa(lp6
I6339
aF1
aa(lp7
I6339
aF0.5
aasI6339
(lp8
(lp9
I6338
aF1
aasI-1
(lp10
I6976
aI5171
aI5174
aI5179
aI5188
aI6977
aI5248
aI5187
aI6979
aI5173
aI5175
aI5086
aI5176
aI6935
aI5085
aI5467
aI5186
aI5170
aI5828
aI6934
aI5347
aI5464
asI5503
(lp11
(lp12
I6339
aF0.5
aas.