(dp1
I6432
(lp2
(lp3
I6432
aF1
aa(lp4
I6434
aF1
aa(lp5
I6433
aF1
aa(lp6
I6435
aF1
aa(lp7
I6434
aF1
aa(lp8
I6433
aF0.59999999999999998
aa(lp9
I6435
aF0.5
aasI6433
(lp10
(lp11
I6432
aF1
aa(lp12
I6434
aF1
aasI6434
(lp13
(lp14
I6432
aF1
aa(lp15
I6433
aF0.59999999999999998
aa(lp16
I6435
aF0.5
aasI6435
(lp17
(lp18
I6432
aF1
aa(lp19
I6434
aF1
aasI6426
(lp20
(lp21
I6435
aF0.5
aasI6460
(lp22
(lp23
I6433
aF0.59999999999999998
aasI-1
(lp24
I6463
aI6462
aI6461
aI6468
aI6451
aI6449
aI5257
aI6415
aI6448
aI5258
aI6450
aI6420
aI6411
aI6469
aI2002
aI6470
aI6458
aI6372
aI4947
as.