(dp1
I648
(lp2
(lp3
I649
aF1
aa(lp4
I650
aF0.75
aasI649
(lp5
(lp6
I649
aF1
aa(lp7
I650
aF1
aa(lp8
I648
aF1
aa(lp9
I650
aF0.75
aa(lp10
I648
aF1
aasI650
(lp11
(lp12
I649
aF1
aa(lp13
I648
aF1
aasI651
(lp14
(lp15
I650
aF0.75
aa(lp16
I648
aF1
aasI-1
(lp17
I639
aI5014
aI637
aI636
aI4829
aI4831
aI3894
aI4899
aI613
aI638
aI4082
aI3892
aI4967
aI5636
aI7664
aI612
aI4012
aI5646
aI5641
aI4358
aI669
as.