(dp1
I6504
(lp2
(lp3
I6511
aF0.59999999999999998
aa(lp4
I6506
aF0.80000000000000004
aasI6506
(lp5
(lp6
I6507
aF1
aa(lp7
I6511
aF0.59999999999999998
aa(lp8
I6510
aF0.80000000000000004
aasI6507
(lp9
(lp10
I6507
aF1
aa(lp11
I6511
aF1
aa(lp12
I6506
aF1
aa(lp13
I6510
aF1
aa(lp14
I6511
aF0.59999999999999998
aa(lp15
I6506
aF0.80000000000000004
aa(lp16
I6510
aF0.80000000000000004
aasI6510
(lp17
(lp18
I6507
aF1
aasI6511
(lp19
(lp20
I6507
aF1
aa(lp21
I6506
aF0.80000000000000004
aa(lp22
I6510
aF0.80000000000000004
aasI-1
(lp23
I6512
aI6508
aI6575
aI6535
aI6505
aI6574
aI6534
aI6515
aI6894
aI6518
aI6569
aI6557
aI10005
aI6539
aI6513
aI6443
aI6519
aI4993
aI10053
aI6533
as.