(dp1
I6528
(lp2
(lp3
I6528
aF1
aa(lp4
I6530
aF1
aa(lp5
I6529
aF1
aa(lp6
I509
aF1
aa(lp7
I6531
aF1
aa(lp8
I6530
aF0.5
aa(lp9
I6529
aF0.66666666666666663
aa(lp10
I6531
aF0.66666666666666663
aasI6529
(lp11
(lp12
I6528
aF1
aa(lp13
I6530
aF0.5
aa(lp14
I6531
aF0.66666666666666663
aasI6530
(lp15
(lp16
I6528
aF1
aa(lp17
I6529
aF0.66666666666666663
aa(lp18
I6531
aF0.66666666666666663
aasI6531
(lp19
(lp20
I6528
aF1
aa(lp21
I6529
aF0.66666666666666663
aasI8193
(lp22
(lp23
I6530
aF0.5
aasI509
(lp24
(lp25
I6528
aF1
aasI-1
(lp26
I511
aI9154
aI8195
aI510
aI8194
aI4605
aI8192
aI4607
aI1674
aI4604
aI974
aI3930
aI5571
aI4003
aI1853
aI1673
aI1253
aI960
aI1675
as.