(dp1
I6528
(lp2
(lp3
I6529
aF0.5
aasI6529
(lp4
(lp5
I6531
aF1
aasI6530
(lp6
(lp7
I6529
aF0.5
aasI6531
(lp8
(lp9
I6531
aF1
aa(lp10
I6529
aF1
aa(lp11
I6529
aF0.5
aasI-1
(lp12
I8193
aI510
aI9154
aI4605
aI1253
aI8194
aI8195
aI219
aI8192
aI509
aI511
aI960
aI3929
aI1870
aI3931
aI4587
aI515
aI3837
aI4611
aI3597
aI10009
as.