(dp1
I6544
(lp2
(lp3
I6544
aF1
aa(lp4
I6545
aF1
aa(lp5
I6545
aF0.5
aasI6545
(lp6
(lp7
I6544
aF1
aasI-1
(lp8
I298
aI6811
aI8997
aI5344
aI44
aI5330
aI2101
aI479
aI5230
aI5329
aI2096
aI2835
aI6307
aI4579
aI5731
aI1889
aI8330
aI9585
aI605
aI5926
aI4637
aI2025
asI2040
(lp9
(lp10
I6545
aF0.5
aasI150
(lp11
(lp12
I6545
aF0.5
aas.