(dp1
I6514
(lp2
(lp3
I6552
aF0.59999999999999998
aasI6552
(lp4
(lp5
I6555
aF1
aa(lp6
I6554
aF1
aa(lp7
I6553
aF1
aasI6553
(lp8
(lp9
I6555
aF1
aa(lp10
I6554
aF1
aa(lp11
I6552
aF0.59999999999999998
aasI6554
(lp12
(lp13
I6555
aF1
aa(lp14
I6553
aF1
aasI6555
(lp15
(lp16
I6555
aF1
aa(lp17
I6554
aF1
aa(lp18
I6553
aF1
aa(lp19
I6552
aF1
aa(lp20
I6554
aF1
aa(lp21
I6553
aF1
aa(lp22
I6552
aF0.59999999999999998
aasI-1
(lp23
I4226
aI9132
aI4224
aI4927
aI4345
aI4347
aI4346
aI815
aI4251
aI4250
aI4062
aI9135
aI4309
aI4896
aI4925
aI3459
aI4549
aI3723
aI4535
aI4227
aI4024
as.