(dp1
I656
(lp2
(lp3
I657
aF1
aa(lp4
I658
aF0.59999999999999998
aa(lp5
I659
aF0.5
aasI657
(lp6
(lp7
I657
aF1
aa(lp8
I658
aF1
aa(lp9
I656
aF1
aa(lp10
I659
aF1
aa(lp11
I658
aF0.59999999999999998
aa(lp12
I656
aF0.80000000000000004
aa(lp13
I659
aF0.5
aasI658
(lp14
(lp15
I657
aF1
aa(lp16
I656
aF0.80000000000000004
aasI659
(lp17
(lp18
I657
aF1
aa(lp19
I656
aF0.80000000000000004
aasI8184
(lp20
(lp21
I658
aF0.59999999999999998
aasI4889
(lp22
(lp23
I659
aF0.5
aasI-1
(lp24
I590
aI686
aI5668
aI601
aI602
aI4364
aI4862
aI7402
aI5647
aI3563
aI600
aI4817
aI700
aI4818
aI3895
aI5677
aI1952
aI9464
aI3139
aI4983
aI4131
as.