(dp1
I6592
(lp2
(lp3
I6592
aF1
aa(lp4
I6595
aF1
aa(lp5
I6603
aF1
aa(lp6
I6595
aF0.75
aa(lp7
I6603
aF0.59999999999999998
aasI6594
(lp8
(lp9
I6595
aF0.75
aasI6595
(lp10
(lp11
I6592
aF1
aa(lp12
I6603
aF0.59999999999999998
aasI6600
(lp13
(lp14
I6603
aF0.59999999999999998
aasI6603
(lp15
(lp16
I6592
aF1
aa(lp17
I6595
aF0.75
aasI-1
(lp18
I6620
aI6644
aI6593
aI6616
aI6623
aI6657
aI6596
aI6712
aI6647
aI6688
aI6742
aI6659
aI6740
aI6748
aI6679
aI6598
aI6756
aI6749
aI6738
aI6646
as.