(dp1
I6592
(lp2
(lp3
I6603
aF1
aa(lp4
I6595
aF0.42857142857142855
aasI6594
(lp5
(lp6
I6595
aF0.42857142857142855
aasI6595
(lp7
(lp8
I6603
aF1
aa(lp9
I6592
aF0.5
aasI6600
(lp10
(lp11
I6603
aF1
aasI6603
(lp12
(lp13
I6603
aF1
aa(lp14
I6600
aF1
aa(lp15
I6592
aF1
aa(lp16
I6595
aF1
aa(lp17
I6619
aF1
aa(lp18
I6592
aF0.5
aa(lp19
I6595
aF0.42857142857142855
aasI6619
(lp20
(lp21
I6603
aF1
aasI6620
(lp22
(lp23
I6592
aF0.5
aasI-1
(lp24
I6627
aI6647
aI6623
aI6601
aI6643
aI6659
aI6596
aI6584
aI6616
aI6602
aI6657
aI6656
aI6644
aI6658
aI6693
aI6660
aI6732
aI6688
aI6635
as.