(dp1
I6635
(lp2
(lp3
I6607
aF1
aa(lp4
I6643
aF0.75
aasI6639
(lp5
(lp6
I6635
aF0.59999999999999998
aasI6642
(lp7
(lp8
I6643
aF0.75
aasI6643
(lp9
(lp10
I6607
aF1
aa(lp11
I6635
aF0.59999999999999998
aasI6607
(lp12
(lp13
I6607
aF1
aa(lp14
I6643
aF1
aa(lp15
I6635
aF1
aa(lp16
I6643
aF0.75
aa(lp17
I6635
aF0.59999999999999998
aasI-1
(lp18
I6605
aI6634
aI6606
aI6604
aI6603
aI6637
aI6623
aI6627
aI6638
aI6622
aI6602
aI6641
aI6636
aI6621
aI6649
aI6633
aI6650
aI6619
aI6626
aI6615
as.