(dp1
I6601
(lp2
(lp3
I6617
aF1
aasI6645
(lp4
(lp5
I6618
aF0.40000000000000002
aasI6616
(lp6
(lp7
I6618
aF0.40000000000000002
aasI6617
(lp8
(lp9
I6617
aF1
aa(lp10
I6618
aF1
aa(lp11
I6601
aF1
aa(lp12
I6618
aF0.40000000000000002
aasI6618
(lp13
(lp14
I6617
aF1
aasI-1
(lp15
I6637
aI6638
aI6630
aI6633
aI6593
aI6594
aI6625
aI6620
aI6621
aI6614
aI6606
aI6622
aI6626
aI6619
aI6605
aI6644
aI6600
aI6610
aI6632
aI6646
as.