(dp1
I6666
(lp2
(lp3
I6648
aF0.59999999999999998
aasI6648
(lp4
(lp5
I6649
aF1
aa(lp6
I6650
aF1
aa(lp7
I6651
aF0.80000000000000004
aasI6649
(lp8
(lp9
I6649
aF1
aa(lp10
I6650
aF1
aa(lp11
I6648
aF1
aa(lp12
I6651
aF1
aa(lp13
I6650
aF1
aa(lp14
I6648
aF0.59999999999999998
aa(lp15
I6651
aF0.80000000000000004
aasI6650
(lp16
(lp17
I6649
aF1
aa(lp18
I6648
aF0.59999999999999998
aa(lp19
I6651
aF0.80000000000000004
aasI6651
(lp20
(lp21
I6649
aF1
aa(lp22
I6650
aF1
aasI-1
(lp23
I6607
aI6577
aI6642
aI6582
aI6615
aI6576
aI6629
aI6665
aI6664
aI6754
aI6673
aI6752
aI6580
aI6643
aI6578
aI6581
aI6605
aI6672
aI6631
aI6623
as.