(dp1
I-1
(lp2
I6748
aI6750
aI6663
aI6751
aI6749
aI6706
aI6687
aI6660
aI6754
aI6682
aI6643
aI6672
aI6756
aI6704
aI6679
aI6680
aI6642
aI6752
aI6666
aI6686
aI6661
asI6652
(lp3
(lp4
I6655
aF0.5
aasI6653
(lp5
(lp6
I6655
aF0.5
aasI6654
(lp7
(lp8
I6654
aF1
aa(lp9
I6655
aF1
aa(lp10
I6655
aF0.5
aasI6655
(lp11
(lp12
I6654
aF1
aas.