(dp1
I6693
(lp2
(lp3
I6668
aF0.5
aasI6667
(lp4
(lp5
I6669
aF1
aa(lp6
I6675
aF0.66666666666666663
aasI6668
(lp7
(lp8
I6669
aF1
aasI6669
(lp9
(lp10
I6669
aF1
aa(lp11
I6668
aF1
aa(lp12
I6675
aF1
aa(lp13
I6670
aF1
aa(lp14
I6667
aF1
aa(lp15
I6668
aF0.5
aa(lp16
I6675
aF0.66666666666666663
aa(lp17
I6670
aF0.42857142857142855
aa(lp18
I6667
aF0.375
aasI6670
(lp19
(lp20
I6669
aF1
aa(lp21
I6668
aF0.5
aa(lp22
I6675
aF0.66666666666666663
aasI6675
(lp23
(lp24
I6669
aF1
aa(lp25
I6670
aF0.42857142857142855
aa(lp26
I6667
aF0.375
aasI6582
(lp27
(lp28
I6670
aF0.42857142857142855
aasI-1
(lp29
I6747
aI6671
aI6579
aI6581
aI6578
aI6580
aI6577
aI6674
aI6731
aI6711
aI6742
aI6576
aI6740
aI6598
aI6746
aI6694
aI6583
asI6719
(lp30
(lp31
I6667
aF0.375
aas.