(dp1
I6691
(lp2
(lp3
I6751
aF0.5
aasI6690
(lp4
(lp5
I6751
aF0.5
aasI6751
(lp6
(lp7
I6671
aF1
aasI-1
(lp8
I6708
aI6668
aI6747
aI6673
aI6652
aI2136
aI2382
aI6670
aI6654
aI2459
aI6681
aI6704
aI6678
aI6717
aI6669
aI6719
aI6716
aI6758
aI6687
aI6667
aI6721
asI6671
(lp9
(lp10
I6671
aF1
aa(lp11
I6751
aF1
aa(lp12
I6751
aF0.5
aas.