(dp1
I6696
(lp2
(lp3
I6697
aF1
aa(lp4
I6699
aF1
aasI6697
(lp5
(lp6
I6697
aF1
aa(lp7
I6699
aF1
aa(lp8
I6696
aF1
aa(lp9
I6698
aF1
aa(lp10
I6699
aF1
aa(lp11
I6696
aF1
aa(lp12
I6698
aF0.59999999999999998
aasI6698
(lp13
(lp14
I6697
aF1
aa(lp15
I6699
aF1
aa(lp16
I6696
aF1
aasI6699
(lp17
(lp18
I6697
aF1
aa(lp19
I6696
aF1
aa(lp20
I6698
aF0.59999999999999998
aasI5980
(lp21
(lp22
I6698
aF0.59999999999999998
aasI-1
(lp23
I6624
aI6635
aI6687
aI6751
aI3861
aI9638
aI6717
aI6612
aI6600
aI6608
aI6716
aI6719
aI6691
aI6718
aI7137
aI9711
aI6625
aI6613
aI2462
aI5983
as.