(dp1
I6664
(lp2
(lp3
I6666
aF0.42857142857142855
aasI6666
(lp4
(lp5
I6711
aF1
aasI6711
(lp6
(lp7
I6711
aF1
aa(lp8
I6709
aF1
aa(lp9
I6708
aF1
aa(lp10
I6666
aF1
aa(lp11
I6679
aF1
aa(lp12
I6709
aF0.5
aa(lp13
I6708
aF0.66666666666666663
aa(lp14
I6666
aF0.42857142857142855
aasI6708
(lp15
(lp16
I6711
aF1
aa(lp17
I6709
aF0.5
aasI6709
(lp18
(lp19
I6711
aF1
aa(lp20
I6708
aF0.66666666666666663
aasI6710
(lp21
(lp22
I6709
aF0.5
aa(lp23
I6708
aF0.66666666666666663
aasI6679
(lp24
(lp25
I6711
aF1
aa(lp26
I6666
aF0.42857142857142855
aasI-1
(lp27
I6692
aI6694
aI6695
aI6668
aI6656
aI6746
aI6742
aI6677
aI6659
aI6750
aI6740
aI6748
aI6663
aI6660
aI6723
aI6676
aI6720
aI6756
as.