(dp1
I6667
(lp2
(lp3
I6719
aF1
aasI6674
(lp4
(lp5
I6718
aF0.42857142857142855
aasI-1
(lp6
I6675
aI6669
aI6670
aI6668
aI6664
aI6579
aI6576
aI8071
aI6577
aI6578
aI6582
aI6673
aI6707
aI6590
aI6581
aI6580
aI6744
aI6665
asI6747
(lp7
(lp8
I6719
aF1
aasI6716
(lp9
(lp10
I6719
aF1
aa(lp11
I6718
aF0.42857142857142855
aasI6653
(lp12
(lp13
I6716
aF0.5
aasI6718
(lp14
(lp15
I6719
aF1
aa(lp16
I6716
aF0.5
aasI6719
(lp17
(lp18
I6719
aF1
aa(lp19
I6747
aF1
aa(lp20
I6716
aF1
aa(lp21
I6667
aF1
aa(lp22
I6718
aF1
aa(lp23
I6716
aF0.5
aa(lp24
I6718
aF0.42857142857142855
aas.