(dp1
I6720
(lp2
(lp3
I6721
aF1
aa(lp4
I6723
aF0.80000000000000004
aa(lp5
I6722
aF0.66666666666666663
aasI6721
(lp6
(lp7
I6721
aF1
aa(lp8
I6723
aF1
aa(lp9
I6720
aF1
aa(lp10
I6677
aF1
aa(lp11
I6722
aF1
aa(lp12
I6723
aF0.80000000000000004
aa(lp13
I6720
aF0.80000000000000004
aa(lp14
I6677
aF0.5
aa(lp15
I6722
aF0.66666666666666663
aasI6722
(lp16
(lp17
I6721
aF1
aa(lp18
I6723
aF0.80000000000000004
aa(lp19
I6720
aF0.80000000000000004
aa(lp20
I6677
aF0.5
aasI6723
(lp21
(lp22
I6721
aF1
aa(lp23
I6720
aF0.80000000000000004
aa(lp24
I6722
aF0.66666666666666663
aasI6676
(lp25
(lp26
I6677
aF0.5
aasI6677
(lp27
(lp28
I6721
aF1
aasI-1
(lp29
I6704
aI6658
aI6657
aI6679
aI6678
aI6660
aI6656
aI6691
aI6705
aI6680
aI6689
aI6661
aI6732
aI6757
aI6659
aI6707
aI6735
aI6733
aI6662
as.