(dp1
I5893
(lp2
(lp3
I6739
aF0.75
aasI6736
(lp4
(lp5
I6736
aF1
aa(lp6
I6739
aF1
aa(lp7
I6738
aF1
aa(lp8
I6739
aF0.75
aa(lp9
I6738
aF0.59999999999999998
aasI6737
(lp10
(lp11
I6738
aF0.59999999999999998
aasI6738
(lp12
(lp13
I6736
aF1
aa(lp14
I6739
aF0.75
aasI6739
(lp15
(lp16
I6736
aF1
aa(lp17
I6738
aF0.59999999999999998
aasI-1
(lp18
I5892
aI5894
aI5895
aI6750
aI6636
aI6647
aI6640
aI4151
aI6604
aI6632
aI6706
aI6681
aI6643
aI6592
aI6682
aI6637
aI6634
aI6758
aI6642
aI6606
as.