(dp1
I6736
(lp2
(lp3
I6738
aF0.5
aasI6737
(lp4
(lp5
I6737
aF1
aa(lp6
I6738
aF1
aa(lp7
I6738
aF0.5
aasI6738
(lp8
(lp9
I6737
aF1
aasI6739
(lp10
(lp11
I6738
aF0.5
aasI-1
(lp12
I6759
aI6620
aI6621
aI6622
aI6706
aI6683
aI6641
aI6628
aI6684
aI6632
aI6604
aI6640
aI6638
aI6686
aI6634
aI6636
aI6756
aI6624
aI6757
aI6630
aI6642
aI6633
aI6625
as.