(dp1
I6752
(lp2
(lp3
I6753
aF1
aa(lp4
I6754
aF0.59999999999999998
aa(lp5
I6755
aF0.80000000000000004
aasI6753
(lp6
(lp7
I6753
aF1
aa(lp8
I6752
aF1
aa(lp9
I6754
aF1
aa(lp10
I6755
aF1
aa(lp11
I6752
aF1
aa(lp12
I6754
aF0.59999999999999998
aa(lp13
I6755
aF0.80000000000000004
aasI6754
(lp14
(lp15
I6753
aF1
aa(lp16
I6752
aF1
aa(lp17
I6755
aF0.80000000000000004
aasI6755
(lp18
(lp19
I6753
aF1
aa(lp20
I6752
aF1
aasI-1
(lp21
I6733
aI6705
aI6625
aI6717
aI6624
aI9980
aI6638
aI6604
aI2382
aI9639
aI7117
aI9638
aI7629
aI7157
aI1036
aI3555
aI6691
aI6640
aI6613
aI6612
asI6751
(lp22
(lp23
I6754
aF0.59999999999999998
aas.