(dp1
I-1
(lp2
I9949
aI9948
aI1877
aI9951
aI9969
aI9821
aI9777
aI9818
aI9950
aI1876
aI9817
aI9968
aI9935
aI9907
aI6550
aI9905
aI7039
aI9904
aI2554
aI9934
aI4582
asI6812
(lp3
(lp4
I6812
aF1
aa(lp5
I6813
aF1
aa(lp6
I6813
aF0.5
aasI6813
(lp7
(lp8
I6812
aF1
aasI6814
(lp9
(lp10
I6813
aF0.5
aasI6815
(lp11
(lp12
I6813
aF0.5
aas.