(dp1
I-1
(lp2
I640
aI3187
aI642
aI9729
aI3184
aI3782
aI3258
aI3256
aI3304
aI5741
aI641
aI3307
aI6971
aI5742
aI5496
aI3186
aI9042
aI4075
aI9730
aI1978
aI3781
asI6828
(lp3
(lp4
I6830
aF1
aa(lp5
I6831
aF1
aa(lp6
I6829
aF1
aasI6829
(lp7
(lp8
I6830
aF1
aa(lp9
I6831
aF1
aa(lp10
I6828
aF1
aasI6830
(lp11
(lp12
I6830
aF1
aa(lp13
I6831
aF1
aa(lp14
I6829
aF1
aa(lp15
I6828
aF1
aa(lp16
I6831
aF1
aa(lp17
I6829
aF1
aa(lp18
I6828
aF1
aasI6831
(lp19
(lp20
I6830
aF1
aa(lp21
I6829
aF1
aa(lp22
I6828
aF1
aas.