(dp1
I6848
(lp2
(lp3
I6848
aF1
aa(lp4
I6849
aF1
aa(lp5
I6850
aF1
aa(lp6
I6851
aF1
aa(lp7
I6849
aF1
aa(lp8
I6850
aF0.59999999999999998
aa(lp9
I6851
aF0.80000000000000004
aasI6849
(lp10
(lp11
I6848
aF1
aa(lp12
I6850
aF0.59999999999999998
aa(lp13
I6851
aF0.80000000000000004
aasI6850
(lp14
(lp15
I6848
aF1
aa(lp16
I6849
aF1
aa(lp17
I6851
aF0.80000000000000004
aasI6851
(lp18
(lp19
I6848
aF1
aa(lp20
I6849
aF1
aasI3361
(lp21
(lp22
I6850
aF0.59999999999999998
aasI-1
(lp23
I1885
aI510
aI4586
aI469
aI965
aI1253
aI3379
aI1889
aI511
aI1017
aI9475
aI3564
aI4654
aI4587
aI3362
aI4656
aI6530
aI606
aI8827
aI8998
aI9774
as.