(dp1
I-1
(lp2
I674
aI602
aI601
aI613
aI603
aI675
aI612
aI702
aI614
aI701
aI673
aI703
aI700
aI717
aI609
aI615
aI600
aI672
aI624
aI627
aI587
asI684
(lp3
(lp4
I685
aF1
aasI685
(lp5
(lp6
I685
aF1
aa(lp7
I684
aF1
aa(lp8
I684
aF0.5
aasI686
(lp9
(lp10
I684
aF0.5
aasI687
(lp11
(lp12
I684
aF0.5
aas.