(dp1
I6852
(lp2
(lp3
I6852
aF1
aa(lp4
I6854
aF1
aa(lp5
I6853
aF1
aa(lp6
I6855
aF1
aa(lp7
I6854
aF1
aa(lp8
I6853
aF0.59999999999999998
aa(lp9
I6855
aF0.5
aasI6853
(lp10
(lp11
I6852
aF1
aa(lp12
I6854
aF1
aasI6854
(lp13
(lp14
I6852
aF1
aa(lp15
I6853
aF0.59999999999999998
aa(lp16
I6855
aF0.5
aasI6855
(lp17
(lp18
I6852
aF1
aa(lp19
I6854
aF1
aasI9480
(lp20
(lp21
I6853
aF0.59999999999999998
aasI5453
(lp22
(lp23
I6855
aF0.5
aasI-1
(lp24
I9542
aI7584
aI7586
aI3670
aI7585
aI5109
aI3671
aI3668
aI9506
aI2789
aI313
aI5960
aI2269
aI8696
aI594
aI5264
aI8853
aI5553
aI5267
aI8703
as.