(dp1
I6852
(lp2
(lp3
I6853
aF1
aa(lp4
I6854
aF0.80000000000000004
aasI6853
(lp5
(lp6
I6853
aF1
aa(lp7
I6852
aF1
aa(lp8
I6949
aF1
aa(lp9
I6854
aF1
aa(lp10
I6852
aF0.59999999999999998
aa(lp11
I6854
aF0.80000000000000004
aasI6854
(lp12
(lp13
I6853
aF1
aa(lp14
I6852
aF0.59999999999999998
aasI6855
(lp15
(lp16
I6852
aF0.59999999999999998
aa(lp17
I6854
aF0.80000000000000004
aasI-1
(lp18
I5263
aI5168
aI5184
aI5345
aI5063
aI6139
aI5762
aI2928
aI6948
aI5761
aI5347
aI2148
aI3960
aI5344
aI2327
aI2921
aI5346
aI2234
aI4624
aI6339
asI6949
(lp19
(lp20
I6853
aF1
aas.