(dp1
I6888
(lp2
(lp3
I6888
aF1
aasI-1
(lp4
I5639
aI1292
aI6609
aI3312
aI1353
aI9977
aI1388
aI4229
aI6891
aI1418
aI4516
aI1947
aI8261
aI2453
aI1391
aI4248
aI3108
aI5503
aI9706
aI9705
aI6577
aI9710
aI1613
aI4153
as.