(dp1
I6889
(lp2
(lp3
I6891
aF1
aa(lp4
I6890
aF0.75
aasI6890
(lp5
(lp6
I6891
aF1
aa(lp7
I6889
aF1
aasI6891
(lp8
(lp9
I6891
aF1
aa(lp10
I6890
aF1
aa(lp11
I6889
aF1
aa(lp12
I6890
aF0.75
aa(lp13
I6889
aF1
aasI-1
(lp14
I5273
aI5420
aI5872
aI5937
aI1418
aI5886
aI1708
aI5873
aI1870
aI5782
aI1710
aI1363
aI6237
aI8936
aI5422
aI5874
aI1709
aI1390
aI5767
aI1592
aI5423
aI1382
asI1657
(lp15
(lp16
I6890
aF0.75
aa(lp17
I6889
aF1
aas.