(dp1
I3203
(lp2
(lp3
I6902
aF0.75
aasI2372
(lp4
(lp5
I6900
aF0.59999999999999998
aasI6900
(lp6
(lp7
I6901
aF1
aa(lp8
I6902
aF0.75
aasI6901
(lp9
(lp10
I6901
aF1
aa(lp11
I6902
aF1
aa(lp12
I6900
aF1
aa(lp13
I6902
aF0.75
aa(lp14
I6900
aF0.59999999999999998
aasI6902
(lp15
(lp16
I6901
aF1
aa(lp17
I6900
aF0.59999999999999998
aasI-1
(lp18
I6903
aI2232
aI3727
aI3760
aI4331
aI3351
aI404
aI4882
aI9489
aI4523
aI405
aI3348
aI6166
aI5937
aI7617
aI1567
aI1898
aI5671
aI1565
aI2236
aI2237
aI3204
as.