(dp1
I7525
(lp2
(lp3
I6938
aF0.40000000000000002
aasI3216
(lp4
(lp5
I6939
aF0.5
aasI6936
(lp6
(lp7
I6938
aF0.40000000000000002
aasI6937
(lp8
(lp9
I6937
aF1
aa(lp10
I6938
aF1
aa(lp11
I6939
aF1
aa(lp12
I6938
aF0.40000000000000002
aa(lp13
I6939
aF0.5
aasI6938
(lp14
(lp15
I6937
aF1
aa(lp16
I6939
aF0.5
aasI6939
(lp17
(lp18
I6937
aF1
aasI-1
(lp19
I7556
aI7557
aI4113
aI8646
aI4115
aI4114
aI6886
aI7559
aI99
aI7528
aI6819
aI7543
aI7529
aI6951
aI6391
aI5900
aI97
aI7763
aI8706
aI5533
as.