(dp1
I6956
(lp2
(lp3
I6959
aF1
aa(lp4
I6957
aF0.80000000000000004
aa(lp5
I6958
aF0.80000000000000004
aasI6957
(lp6
(lp7
I6959
aF1
aa(lp8
I6958
aF0.80000000000000004
aa(lp9
I6956
aF0.80000000000000004
aa(lp10
I22
aF0.5
aasI2190
(lp11
(lp12
I22
aF0.5
aasI6959
(lp13
(lp14
I6959
aF1
aa(lp15
I6957
aF1
aa(lp16
I6958
aF1
aa(lp17
I6956
aF1
aa(lp18
I22
aF1
aa(lp19
I6957
aF0.80000000000000004
aa(lp20
I6958
aF0.80000000000000004
aa(lp21
I6956
aF0.80000000000000004
aa(lp22
I22
aF0.5
aasI6958
(lp23
(lp24
I6959
aF1
aa(lp25
I6957
aF0.80000000000000004
aa(lp26
I6956
aF0.80000000000000004
aasI22
(lp27
(lp28
I6959
aF1
aasI-1
(lp29
I735
aI734
aI733
aI8932
aI8933
aI2191
aI8919
aI8916
aI732
aI3741
aI3742
aI10042
aI7214
aI8918
aI8917
aI10031
aI739
aI3651
aI7444
as.