(dp1
I2371
(lp2
(lp3
I6970
aF0.59999999999999998
aasI6968
(lp4
(lp5
I6971
aF1
aa(lp6
I6970
aF0.59999999999999998
aasI6969
(lp7
(lp8
I6971
aF1
aa(lp9
I6968
aF1
aasI6970
(lp10
(lp11
I6971
aF1
aa(lp12
I6968
aF1
aasI6971
(lp13
(lp14
I6971
aF1
aa(lp15
I6968
aF1
aa(lp16
I6970
aF1
aa(lp17
I6969
aF1
aa(lp18
I6968
aF1
aa(lp19
I6970
aF0.59999999999999998
aasI-1
(lp20
I3184
aI3187
aI3185
aI3186
aI3223
aI3221
aI3222
aI3305
aI3307
aI5738
aI3220
aI3304
aI2368
aI9779
aI1897
aI6087
aI5736
aI3306
aI6332
aI5737
as.