(dp1
I6984
(lp2
(lp3
I6985
aF1
aasI6985
(lp4
(lp5
I6985
aF1
aa(lp6
I6984
aF1
aa(lp7
I6984
aF0.5
aasI7045
(lp8
(lp9
I6984
aF0.5
aasI-1
(lp10
I7036
aI7140
aI7093
aI7092
aI7020
aI7175
aI7005
aI7019
aI7021
aI7022
aI7088
aI6997
aI7168
aI7141
aI7065
aI7039
aI7035
aI7172
aI7143
aI6994
aI7148
asI7017
(lp11
(lp12
I6984
aF0.5
aas.