(dp1
I-1
(lp2
I6996
aI6997
aI6990
aI7006
aI6826
aI7094
aI7005
aI6084
aI3273
aI1869
aI7069
aI6705
aI3272
aI3275
aI6991
aI6988
aI7093
aI7004
aI5499
aI7117
aI6999
aI1868
aI7161
aI6086
asI6998
(lp3
(lp4
I6998
aF1
aas.