(dp1
I7012
(lp2
(lp3
I7012
aF1
aa(lp4
I7015
aF1
aa(lp5
I7013
aF1
aa(lp6
I7014
aF1
aa(lp7
I7015
aF0.59999999999999998
aa(lp8
I7013
aF0.5
aa(lp9
I7014
aF0.42857142857142855
aasI7013
(lp10
(lp11
I7012
aF1
aasI7014
(lp12
(lp13
I7012
aF1
aa(lp14
I7015
aF0.59999999999999998
aasI7015
(lp15
(lp16
I7012
aF1
aa(lp17
I7013
aF0.5
aa(lp18
I7014
aF0.42857142857142855
aasI7148
(lp19
(lp20
I7015
aF0.59999999999999998
aasI7151
(lp21
(lp22
I7013
aF0.5
aasI-1
(lp23
I7038
aI7058
aI7156
aI6996
aI6989
aI7095
aI7150
aI7164
aI7071
aI7158
aI6997
aI7137
aI7076
aI7044
aI7019
aI7173
aI7023
aI7146
aI7032
asI7070
(lp24
(lp25
I7014
aF0.42857142857142855
aas.