(dp1
I7048
(lp2
(lp3
I7032
aF0.75
aasI7117
(lp4
(lp5
I7033
aF0.59999999999999998
aasI7032
(lp6
(lp7
I7034
aF1
aa(lp8
I7033
aF0.59999999999999998
aasI7033
(lp9
(lp10
I7034
aF1
aa(lp11
I7032
aF0.75
aasI7034
(lp12
(lp13
I7034
aF1
aa(lp14
I7032
aF1
aa(lp15
I7033
aF1
aa(lp16
I7032
aF0.75
aa(lp17
I7033
aF0.59999999999999998
aasI-1
(lp18
I7039
aI7050
aI7030
aI7027
aI7044
aI7092
aI7069
aI7040
aI7068
aI7024
aI7108
aI7004
aI7062
aI7023
aI7064
aI7104
aI7091
aI7109
aI7157
aI7088
aI6992
as.