(dp1
I7102
(lp2
(lp3
I7100
aF1
aa(lp4
I7101
aF1
aasI7766
(lp5
(lp6
I7103
aF0.59999999999999998
aasI7100
(lp7
(lp8
I7100
aF1
aa(lp9
I7102
aF1
aa(lp10
I7101
aF1
aa(lp11
I7103
aF1
aa(lp12
I7102
aF1
aa(lp13
I7101
aF1
aa(lp14
I7103
aF0.59999999999999998
aasI7101
(lp15
(lp16
I7100
aF1
aa(lp17
I7102
aF1
aa(lp18
I7103
aF0.59999999999999998
aasI-1
(lp19
I5275
aI5274
aI5273
aI7765
aI5395
aI5736
aI5272
aI5255
aI5393
aI7764
aI4137
aI5252
aI1482
aI5732
aI6090
aI5735
aI8390
aI6089
aI5733
aI6331
asI7103
(lp20
(lp21
I7100
aF1
aa(lp22
I7102
aF1
aa(lp23
I7101
aF1
aas.