(dp1
I7104
(lp2
(lp3
I7106
aF1
aa(lp4
I7105
aF0.5714285714285714
aa(lp5
I7110
aF0.5714285714285714
aasI7105
(lp6
(lp7
I7106
aF1
aa(lp8
I7104
aF0.5714285714285714
aa(lp9
I7112
aF0.5714285714285714
aasI7106
(lp10
(lp11
I7106
aF1
aa(lp12
I7104
aF1
aa(lp13
I7105
aF1
aa(lp14
I7112
aF1
aa(lp15
I7110
aF1
aa(lp16
I7115
aF1
aa(lp17
I7120
aF1
aa(lp18
I7104
aF0.5714285714285714
aa(lp19
I7105
aF0.5714285714285714
aa(lp20
I7112
aF0.5714285714285714
aa(lp21
I7110
aF0.5714285714285714
aa(lp22
I7115
aF0.375
aasI7110
(lp23
(lp24
I7106
aF1
aasI7112
(lp25
(lp26
I7106
aF1
aa(lp27
I7104
aF0.5714285714285714
aa(lp28
I7105
aF0.5714285714285714
aa(lp29
I7110
aF0.5714285714285714
aa(lp30
I7115
aF0.375
aasI7113
(lp31
(lp32
I7115
aF0.375
aasI7115
(lp33
(lp34
I7106
aF1
aa(lp35
I7112
aF0.5714285714285714
aasI7120
(lp36
(lp37
I7106
aF1
aasI-1
(lp38
I7121
aI7122
aI7118
aI7186
aI7180
aI7189
aI7188
aI7116
aI7183
aI7119
aI7185
aI7181
aI7184
aI7107
aI7190
aI7114
aI2092
as.