(dp1
I7137
(lp2
(lp3
I7139
aF0.5
aasI7138
(lp4
(lp5
I7138
aF1
aa(lp6
I7139
aF1
aa(lp7
I7139
aF0.5
aasI7139
(lp8
(lp9
I7138
aF1
aasI-1
(lp10
I6991
aI6990
aI7136
aI7069
aI7016
aI7149
aI7038
aI7151
aI7170
aI7046
aI7071
aI6996
aI7174
aI6988
aI7157
aI6989
aI7074
aI7029
aI7098
aI7033
aI7090
asI7094
(lp11
(lp12
I7139
aF0.5
aas.