(dp1
I-1
(lp2
I7139
aI7029
aI7151
aI7138
aI7067
aI7071
aI7153
aI7074
aI7190
aI7046
aI7157
aI7137
aI7098
aI6991
aI7179
aI7062
aI7070
aI7033
aI6990
aI7161
aI7170
asI7174
(lp3
(lp4
I7094
aF0.5
aasI7149
(lp5
(lp6
I7149
aF1
aa(lp7
I7094
aF1
aa(lp8
I7094
aF0.5
aasI7094
(lp9
(lp10
I7149
aF1
aasI7069
(lp11
(lp12
I7094
aF0.5
aas.