(dp1
I7127
(lp2
(lp3
I7160
aF1
aa(lp4
I7124
aF0.44444444444444442
aasI7024
(lp5
(lp6
I7160
aF1
aasI7027
(lp7
(lp8
I7024
aF0.33333333333333331
aasI7124
(lp9
(lp10
I7160
aF1
aa(lp11
I7162
aF0.66666666666666663
aasI7158
(lp12
(lp13
I7191
aF0.375
aa(lp14
I7024
aF0.33333333333333331
aasI7191
(lp15
(lp16
I7160
aF1
aa(lp17
I7162
aF0.66666666666666663
aasI7160
(lp18
(lp19
I7160
aF1
aa(lp20
I7162
aF1
aa(lp21
I7127
aF1
aa(lp22
I7191
aF1
aa(lp23
I7024
aF1
aa(lp24
I7124
aF1
aa(lp25
I7162
aF0.66666666666666663
aa(lp26
I7127
aF0.42857142857142855
aa(lp27
I7191
aF0.375
aa(lp28
I7024
aF0.33333333333333331
aa(lp29
I7124
aF0.44444444444444442
aasI7060
(lp30
(lp31
I7127
aF0.42857142857142855
aasI7162
(lp32
(lp33
I7160
aF1
aa(lp34
I7127
aF0.42857142857142855
aa(lp35
I7191
aF0.375
aa(lp36
I7124
aF0.44444444444444442
aasI-1
(lp37
I7032
aI7066
aI7068
aI7072
aI7031
aI7023
aI7034
aI7028
aI7057
aI7011
aI7176
aI7188
aI7052
aI7156
aI7063
aI7056
as.