(dp1
I7184
(lp2
(lp3
I7185
aF1
aasI7185
(lp4
(lp5
I7185
aF1
aa(lp6
I7184
aF1
aa(lp7
I7184
aF0.5
aasI7162
(lp8
(lp9
I7184
aF0.5
aasI7188
(lp10
(lp11
I7184
aF0.5
aasI-1
(lp12
I7168
aI7172
aI7183
aI7088
aI7072
aI7140
aI7116
aI7062
aI7155
aI7132
aI7164
aI7175
aI7180
aI7152
aI7130
aI7068
aI7092
aI7149
aI7082
aI7120
aI7144
as.