(dp1
I7208
(lp2
(lp3
I7208
aF1
aa(lp4
I7209
aF1
aa(lp5
I7210
aF1
aa(lp6
I7211
aF1
aa(lp7
I7209
aF0.59999999999999998
aa(lp8
I7210
aF0.80000000000000004
aa(lp9
I7211
aF0.5
aasI7209
(lp10
(lp11
I7208
aF1
aa(lp12
I7210
aF0.80000000000000004
aasI7210
(lp13
(lp14
I7208
aF1
aa(lp15
I7209
aF0.59999999999999998
aa(lp16
I7211
aF0.5
aasI7211
(lp17
(lp18
I7208
aF1
aa(lp19
I7210
aF0.80000000000000004
aasI9256
(lp20
(lp21
I7211
aF0.5
aasI9257
(lp22
(lp23
I7209
aF0.59999999999999998
aasI-1
(lp24
I9258
aI9350
aI9331
aI9330
aI9349
aI9348
aI9338
aI9329
aI9238
aI9275
aI9328
aI9274
aI7375
aI9227
aI9347
aI9224
aI9351
aI9336
aI9236
as.