(dp1
I7264
(lp2
(lp3
I7266
aF0.40000000000000002
aasI7266
(lp4
(lp5
I7267
aF1
aasI7267
(lp6
(lp7
I7267
aF1
aa(lp8
I7266
aF1
aa(lp9
I1779
aF1
aa(lp10
I7266
aF0.40000000000000002
aasI1779
(lp11
(lp12
I7267
aF1
aasI9177
(lp13
(lp14
I7266
aF0.40000000000000002
aasI-1
(lp15
I7869
aI7868
aI7870
aI7278
aI7292
aI7265
aI7276
aI7826
aI9176
aI7269
aI7842
aI9178
aI7260
aI7803
aI7809
aI7279
aI7840
aI7293
aI7312
aI7313
as.