(dp1
I7299
(lp2
(lp3
I7271
aF0.33333333333333331
aasI7268
(lp4
(lp5
I7270
aF1
aa(lp6
I7269
aF0.66666666666666663
aasI7269
(lp7
(lp8
I7270
aF1
aa(lp9
I7268
aF0.42857142857142855
aasI7270
(lp10
(lp11
I7270
aF1
aa(lp12
I7271
aF1
aa(lp13
I7269
aF1
aa(lp14
I7268
aF1
aa(lp15
I7271
aF0.33333333333333331
aa(lp16
I7269
aF0.66666666666666663
aa(lp17
I7268
aF0.42857142857142855
aasI7271
(lp18
(lp19
I7270
aF1
aa(lp20
I7269
aF0.66666666666666663
aasI7276
(lp21
(lp22
I7271
aF0.33333333333333331
aasI7293
(lp23
(lp24
I7268
aF0.42857142857142855
aasI-1
(lp25
I9287
aI9285
aI7279
aI7260
aI7322
aI7278
aI9286
aI7321
aI7225
aI7292
aI7262
aI7387
aI7324
aI7315
aI7277
aI7313
aI9284
aI9362
as.