(dp1
I7272
(lp2
(lp3
I7273
aF1
aasI7273
(lp4
(lp5
I7273
aF1
aa(lp6
I7275
aF1
aa(lp7
I7272
aF1
aa(lp8
I7275
aF0.40000000000000002
aa(lp9
I7272
aF0.5
aasI7275
(lp10
(lp11
I7273
aF1
aa(lp12
I7272
aF0.5
aasI7949
(lp13
(lp14
I7272
aF0.5
aasI9277
(lp15
(lp16
I7275
aF0.40000000000000002
aasI-1
(lp17
I9276
aI7274
aI9278
aI562
aI7366
aI4865
aI4864
aI9306
aI5006
aI4936
aI4795
aI4939
aI563
aI7950
aI3091
aI884
aI7948
aI8480
aI4937
aI2574
asI9279
(lp18
(lp19
I7275
aF0.40000000000000002
aas.