(dp1
I7335
(lp2
(lp3
I7314
aF0.59999999999999998
aasI7312
(lp4
(lp5
I7315
aF1
aa(lp6
I7314
aF0.59999999999999998
aasI7313
(lp7
(lp8
I7312
aF0.5
aasI7314
(lp9
(lp10
I7315
aF1
aa(lp11
I7312
aF0.5
aasI7315
(lp12
(lp13
I7315
aF1
aa(lp14
I7314
aF1
aa(lp15
I7312
aF1
aa(lp16
I7318
aF1
aa(lp17
I7314
aF0.59999999999999998
aa(lp18
I7312
aF0.5
aasI7318
(lp19
(lp20
I7315
aF1
aasI-1
(lp21
I7319
aI7332
aI7333
aI8536
aI9292
aI8428
aI7340
aI7368
aI8422
aI7342
aI7248
aI7262
aI7226
aI9352
aI8430
aI9353
aI7300
aI7260
aI8450
as.