(dp1
I7320
(lp2
(lp3
I7323
aF1
aasI7296
(lp4
(lp5
I7320
aF0.5
aasI7323
(lp6
(lp7
I7323
aF1
aa(lp8
I7320
aF1
aa(lp9
I7320
aF0.5
aasI9365
(lp10
(lp11
I7320
aF0.5
aasI-1
(lp12
I9366
aI9304
aI9359
aI9358
aI9254
aI7297
aI9305
aI9356
aI7291
aI9357
aI9291
aI9337
aI9307
aI9336
aI7321
aI7322
aI7290
aI9215
aI9328
aI9339
aI9245
as.