(dp1
I7344
(lp2
(lp3
I7346
aF1
aasI7345
(lp4
(lp5
I7344
aF0.5
aasI7346
(lp6
(lp7
I7346
aF1
aa(lp8
I7344
aF1
aa(lp9
I7344
aF0.5
aasI7352
(lp10
(lp11
I7344
aF0.5
aasI-1
(lp12
I7347
aI7353
aI7354
aI7355
aI9302
aI7379
aI9368
aI9303
aI7376
aI7370
aI9181
aI7371
aI9230
aI9220
aI7307
aI7378
aI7377
aI9366
aI9274
aI7329
aI9300
as.