(dp1
I7296
(lp2
(lp3
I7358
aF0.59999999999999998
aasI7358
(lp4
(lp5
I7356
aF1
aa(lp6
I7357
aF0.75
aasI7356
(lp7
(lp8
I7356
aF1
aa(lp9
I7357
aF1
aa(lp10
I7358
aF1
aa(lp11
I7357
aF0.75
aa(lp12
I7358
aF0.59999999999999998
aasI7357
(lp13
(lp14
I7356
aF1
aasI-1
(lp15
I1731
aI165
aI9299
aI7906
aI1728
aI7372
aI7837
aI8185
aI6409
aI112
aI4117
aI776
aI9298
aI7760
aI7369
aI9363
aI8480
aI7836
aI9267
aI197
asI7359
(lp16
(lp17
I7357
aF0.75
aa(lp18
I7358
aF0.59999999999999998
aas.