(dp1
I-1
(lp2
I7359
aI9299
aI9361
aI9358
aI9353
aI7370
aI7305
aI3043
aI9352
aI9363
aI9266
aI9275
aI8184
aI7361
aI7373
aI3098
aI9522
aI7362
aI3493
aI2775
aI7369
aI8572
asI1731
(lp3
(lp4
I7356
aF0.5
aasI7356
(lp5
(lp6
I7357
aF1
aasI7357
(lp7
(lp8
I7357
aF1
aa(lp9
I7356
aF1
aa(lp10
I7356
aF0.5
aasI7358
(lp11
(lp12
I7356
aF0.5
aas.