(dp1
I7368
(lp2
(lp3
I7370
aF1
aa(lp4
I7369
aF0.59999999999999998
aasI7369
(lp5
(lp6
I7370
aF1
aa(lp7
I7368
aF0.5
aasI7370
(lp8
(lp9
I7370
aF1
aa(lp10
I7369
aF1
aa(lp11
I7368
aF1
aa(lp12
I9370
aF1
aa(lp13
I7369
aF0.59999999999999998
aa(lp14
I7368
aF0.5
aasI7307
(lp15
(lp16
I7369
aF0.59999999999999998
aasI9370
(lp17
(lp18
I7370
aF1
aasI7354
(lp19
(lp20
I7368
aF0.5
aasI-1
(lp21
I7352
aI7346
aI7344
aI7371
aI9353
aI7337
aI7305
aI9220
aI7347
aI9354
aI7339
aI9253
aI4891
aI7353
aI9371
aI9368
aI8464
aI9522
aI9362
as.