(dp1
I9191
(lp2
(lp3
I7373
aF0.75
aasI7372
(lp4
(lp5
I7375
aF1
aa(lp6
I7373
aF0.75
aasI7373
(lp7
(lp8
I7375
aF1
aa(lp9
I7372
aF0.59999999999999998
aasI7374
(lp10
(lp11
I7372
aF0.59999999999999998
aasI7375
(lp12
(lp13
I7375
aF1
aa(lp14
I7373
aF1
aa(lp15
I7372
aF1
aa(lp16
I7373
aF0.75
aa(lp17
I7372
aF0.59999999999999998
aasI-1
(lp18
I7356
aI7208
aI9244
aI7209
aI9258
aI9333
aI7359
aI7358
aI9350
aI7210
aI9309
aI9257
aI9349
aI9348
aI9267
aI9310
aI7211
aI7331
aI9264
aI7222
aI9190
as.