(dp1
I4864
(lp2
(lp3
I7393
aF0.5
aasI7393
(lp4
(lp5
I7394
aF1
aasI7394
(lp6
(lp7
I7394
aF1
aa(lp8
I7393
aF1
aa(lp9
I7393
aF0.5
aasI-1
(lp10
I4813
aI4867
aI561
aI4815
aI311
aI9129
aI4812
aI562
aI5003
aI6193
aI4987
aI7388
aI6479
aI7395
aI560
aI6898
aI4798
aI1637
aI7020
aI4219
aI4547
aI563
asI4814
(lp11
(lp12
I7393
aF0.5
aas.