(dp1
I5738
(lp2
(lp3
I7404
aF0.5
aasI7404
(lp4
(lp5
I7406
aF1
aa(lp6
I7405
aF0.59999999999999998
aasI7405
(lp7
(lp8
I7406
aF1
aa(lp9
I7404
aF0.5
aasI7406
(lp10
(lp11
I7406
aF1
aa(lp12
I7405
aF1
aa(lp13
I7404
aF1
aa(lp14
I7407
aF1
aa(lp15
I7405
aF0.59999999999999998
aa(lp16
I7404
aF0.5
aasI7407
(lp17
(lp18
I7406
aF1
aasI1978
(lp19
(lp20
I7405
aF0.59999999999999998
aasI-1
(lp21
I3077
aI8145
aI3906
aI3076
aI3904
aI3102
aI3078
aI8533
aI8521
aI4899
aI8534
aI4898
aI8529
aI8520
aI8468
aI8532
aI8528
aI4929
aI4910
aI8535
aI8456
as.