(dp1
I740
(lp2
(lp3
I741
aF0.59999999999999998
aasI741
(lp4
(lp5
I742
aF1
aa(lp6
I743
aF0.75
aasI742
(lp7
(lp8
I742
aF1
aa(lp9
I743
aF1
aa(lp10
I741
aF1
aa(lp11
I743
aF0.75
aa(lp12
I741
aF0.59999999999999998
aasI743
(lp13
(lp14
I742
aF1
aa(lp15
I741
aF0.59999999999999998
aasI972
(lp16
(lp17
I743
aF0.75
aasI-1
(lp18
I1870
aI4000
aI1871
aI8223
aI973
aI1868
aI4136
aI1869
aI2349
aI219
aI510
aI1481
aI960
aI6985
aI3759
aI7094
aI974
aI111
aI545
aI6529
aI335
as.