(dp1
I7422
(lp2
(lp3
I7423
aF1
aa(lp4
I7421
aF0.80000000000000004
aa(lp5
I7420
aF0.80000000000000004
aasI3541
(lp6
(lp7
I7423
aF1
aasI7420
(lp8
(lp9
I7423
aF1
aa(lp10
I7421
aF0.80000000000000004
aa(lp11
I7422
aF0.80000000000000004
aasI7421
(lp12
(lp13
I7423
aF1
aa(lp14
I7420
aF0.80000000000000004
aa(lp15
I7422
aF0.80000000000000004
aasI-1
(lp16
I6158
aI3504
aI2178
aI2176
aI3540
aI7580
aI7557
aI2197
aI93
aI3926
aI92
aI335
aI7582
aI343
aI7558
aI7556
aI6159
aI9411
aI344
aI342
asI7423
(lp17
(lp18
I7423
aF1
aa(lp19
I7421
aF1
aa(lp20
I7420
aF1
aa(lp21
I7422
aF1
aa(lp22
I3541
aF1
aa(lp23
I7421
aF0.80000000000000004
aa(lp24
I7420
aF0.80000000000000004
aa(lp25
I7422
aF0.80000000000000004
aas.