(dp1
I7464
(lp2
(lp3
I7464
aF1
aa(lp4
I7465
aF1
aa(lp5
I7466
aF1
aa(lp6
I7465
aF0.75
aa(lp7
I7466
aF0.59999999999999998
aasI7465
(lp8
(lp9
I7464
aF1
aa(lp10
I7466
aF0.59999999999999998
aasI7466
(lp11
(lp12
I7464
aF1
aa(lp13
I7465
aF0.75
aasI7467
(lp14
(lp15
I7466
aF0.59999999999999998
aasI1723
(lp16
(lp17
I7465
aF0.75
aasI-1
(lp18
I5566
aI5567
aI1736
aI5565
aI1722
aI5304
aI7505
aI4317
aI3052
aI4242
aI3640
aI61
aI6421
aI10084
aI8784
aI4243
aI63
aI5259
aI3796
aI1738
aI10023
aI121
as.