(dp1
I7468
(lp2
(lp3
I7472
aF1
aasI7469
(lp4
(lp5
I7472
aF1
aa(lp6
I7475
aF0.5714285714285714
aa(lp7
I7471
aF0.33333333333333331
aasI7470
(lp8
(lp9
I7471
aF0.33333333333333331
aasI7471
(lp10
(lp11
I7472
aF1
aa(lp12
I7469
aF0.5
aasI7472
(lp13
(lp14
I7472
aF1
aa(lp15
I7474
aF1
aa(lp16
I7475
aF1
aa(lp17
I7473
aF1
aa(lp18
I7469
aF1
aa(lp19
I7468
aF1
aa(lp20
I7471
aF1
aa(lp21
I7474
aF0.5714285714285714
aa(lp22
I7475
aF0.5714285714285714
aa(lp23
I7473
aF0.375
aa(lp24
I7469
aF0.5
aa(lp25
I7468
aF0.5
aa(lp26
I7471
aF0.33333333333333331
aasI7473
(lp27
(lp28
I7472
aF1
aa(lp29
I7474
aF0.5714285714285714
aasI7474
(lp30
(lp31
I7472
aF1
aa(lp32
I7475
aF0.5714285714285714
aa(lp33
I7473
aF0.375
aa(lp34
I7468
aF0.5
aasI7475
(lp35
(lp36
I7472
aF1
aa(lp37
I7474
aF0.5714285714285714
aa(lp38
I7469
aF0.5
aa(lp39
I7468
aF0.5
aasI1212
(lp40
(lp41
I7473
aF0.375
aasI-1
(lp42
I2325
aI8725
aI1373
aI1137
aI1374
aI1165
aI2604
aI1429
aI1164
aI3963
aI2324
aI3943
aI1233
aI1232
aI1084
aI1025
aI1081
as.