(dp1
I7480
(lp2
(lp3
I7480
aF1
aa(lp4
I7481
aF1
aa(lp5
I7483
aF1
aa(lp6
I7481
aF0.75
aa(lp7
I7483
aF0.59999999999999998
aasI7481
(lp8
(lp9
I7480
aF1
aa(lp10
I7483
aF0.59999999999999998
aasI6234
(lp11
(lp12
I7483
aF0.59999999999999998
aasI7483
(lp13
(lp14
I7480
aF1
aa(lp15
I7481
aF0.75
aasI-1
(lp16
I8090
aI3775
aI3129
aI7491
aI7428
aI6269
aI7482
aI7489
aI7478
aI9145
aI7488
aI8098
aI3114
aI3105
aI7495
aI7479
aI3103
aI7490
aI6232
aI3307
aI8096
asI3007
(lp17
(lp18
I7481
aF0.75
aas.