(dp1
I7494
(lp2
(lp3
I7494
aF1
aa(lp4
I7495
aF1
aa(lp5
I7430
aF1
aa(lp6
I7495
aF0.40000000000000002
aasI7430
(lp7
(lp8
I7494
aF1
aasI7495
(lp9
(lp10
I7494
aF1
aasI7476
(lp11
(lp12
I7495
aF0.40000000000000002
aasI7481
(lp13
(lp14
I7495
aF0.40000000000000002
aasI-1
(lp15
I7479
aI7428
aI7483
aI7478
aI7492
aI9113
aI9115
aI7493
aI9112
aI9021
aI9030
aI7482
aI6331
aI9020
aI9114
aI2223
aI7432
aI8986
aI7434
aI3947
as.