(dp1
I7428
(lp2
(lp3
I7495
aF1
aasI7494
(lp4
(lp5
I7495
aF1
aasI7430
(lp6
(lp7
I7494
aF0.33333333333333331
aa(lp8
I7428
aF0.42857142857142855
aasI7495
(lp9
(lp10
I7495
aF1
aa(lp11
I7494
aF1
aa(lp12
I7428
aF1
aa(lp13
I7483
aF1
aa(lp14
I7494
aF0.33333333333333331
aa(lp15
I7428
aF0.42857142857142855
aa(lp16
I7483
aF0.5714285714285714
aasI7476
(lp17
(lp18
I7494
aF0.33333333333333331
aa(lp19
I7483
aF0.5714285714285714
aasI7481
(lp20
(lp21
I7428
aF0.42857142857142855
aa(lp22
I7483
aF0.5714285714285714
aasI7483
(lp23
(lp24
I7495
aF1
aasI-1
(lp25
I7479
aI7478
aI9113
aI9115
aI7482
aI7492
aI9112
aI6331
aI9020
aI7429
aI7493
aI9030
aI9021
aI9114
aI6330
aI8986
aI9032
aI3947
as.