(dp1
I840
(lp2
(lp3
I7507
aF0.40000000000000002
aasI3691
(lp4
(lp5
I7507
aF0.40000000000000002
aasI7505
(lp6
(lp7
I7506
aF1
aasI7506
(lp8
(lp9
I7506
aF1
aa(lp10
I7507
aF1
aa(lp11
I7505
aF1
aa(lp12
I7507
aF0.40000000000000002
aasI7507
(lp13
(lp14
I7506
aF1
aasI-1
(lp15
I8634
aI8635
aI812
aI841
aI843
aI842
aI8633
aI3527
aI815
aI856
aI871
aI813
aI859
aI814
aI794
aI792
aI833
aI5647
aI3688
aI834
aI835
as.