(dp1
I833
(lp2
(lp3
I7510
aF0.75
aa(lp4
I7511
aF1
aasI-1
(lp5
I4226
aI9273
aI9275
aI3827
aI9274
aI3826
aI9092
aI832
aI3824
aI1890
aI5758
aI9965
aI7508
aI3958
aI810
aI1516
aI835
aI7394
aI1986
aI3825
aI9369
asI7509
(lp6
(lp7
I7509
aF1
aa(lp8
I7510
aF1
aa(lp9
I7511
aF1
aa(lp10
I7510
aF0.75
aa(lp11
I7511
aF1
aasI7510
(lp12
(lp13
I7509
aF1
aa(lp14
I7511
aF1
aasI7511
(lp15
(lp16
I7509
aF1
aa(lp17
I7510
aF0.75
aas.