(dp1
I7726
(lp2
(lp3
I7512
aF0.59999999999999998
aasI7512
(lp4
(lp5
I7513
aF1
aa(lp6
I7514
aF0.80000000000000004
aa(lp7
I7515
aF0.80000000000000004
aasI7513
(lp8
(lp9
I7513
aF1
aa(lp10
I7512
aF1
aa(lp11
I7514
aF1
aa(lp12
I7515
aF1
aa(lp13
I7512
aF0.59999999999999998
aa(lp14
I7514
aF0.80000000000000004
aa(lp15
I7515
aF0.80000000000000004
aasI7514
(lp16
(lp17
I7513
aF1
aa(lp18
I7512
aF0.59999999999999998
aa(lp19
I7515
aF0.80000000000000004
aasI7515
(lp20
(lp21
I7513
aF1
aa(lp22
I7514
aF0.80000000000000004
aasI-1
(lp23
I259
aI257
aI10163
aI4936
aI5798
aI1530
aI4799
aI164
aI4987
aI1528
aI7949
aI5334
aI1529
aI4798
aI735
aI258
aI1774
aI549
aI535
aI10130
aI1531
as.