(dp1
I7520
(lp2
(lp3
I7521
aF1
aa(lp4
I7522
aF0.59999999999999998
aa(lp5
I7523
aF0.80000000000000004
aasI7521
(lp6
(lp7
I7521
aF1
aa(lp8
I7522
aF1
aa(lp9
I7520
aF1
aa(lp10
I7523
aF1
aa(lp11
I7522
aF0.59999999999999998
aa(lp12
I7520
aF0.80000000000000004
aa(lp13
I7523
aF0.80000000000000004
aasI7522
(lp14
(lp15
I7521
aF1
aa(lp16
I7520
aF0.80000000000000004
aa(lp17
I7523
aF0.80000000000000004
aasI7523
(lp18
(lp19
I7521
aF1
aa(lp20
I7520
aF0.80000000000000004
aasI7542
(lp21
(lp22
I7522
aF0.59999999999999998
aasI-1
(lp23
I7700
aI7701
aI7525
aI8705
aI8878
aI8834
aI8627
aI7643
aI7703
aI8706
aI8877
aI6968
aI7540
aI8707
aI8835
aI8704
aI2952
aI8626
aI7736
aI6439
as.