(dp1
I7532
(lp2
(lp3
I7533
aF1
aa(lp4
I7534
aF0.5
aasI7533
(lp5
(lp6
I7533
aF1
aa(lp7
I7532
aF1
aa(lp8
I7534
aF1
aa(lp9
I7532
aF0.40000000000000002
aa(lp10
I7534
aF0.5
aasI7534
(lp11
(lp12
I7533
aF1
aasI7537
(lp13
(lp14
I7534
aF0.5
aasI7512
(lp15
(lp16
I7532
aF0.40000000000000002
aasI7514
(lp17
(lp18
I7532
aF0.40000000000000002
aasI-1
(lp19
I7536
aI7513
aI7456
aI7458
aI7459
aI2540
aI10046
aI7440
aI8524
aI8492
aI7437
aI7547
aI8590
aI8525
aI8588
aI8589
aI8182
aI8562
aI7465
as.