(dp1
I7460
(lp2
(lp3
I7544
aF0.5
aasI9522
(lp4
(lp5
I7547
aF0.40000000000000002
aasI7544
(lp6
(lp7
I7545
aF1
aasI7545
(lp8
(lp9
I7545
aF1
aa(lp10
I7547
aF1
aa(lp11
I7544
aF1
aa(lp12
I7547
aF0.40000000000000002
aa(lp13
I7544
aF0.5
aasI7546
(lp14
(lp15
I7547
aF0.40000000000000002
aasI7547
(lp16
(lp17
I7545
aF1
aa(lp18
I7544
aF0.5
aasI-1
(lp19
I6726
aI6725
aI7462
aI6724
aI3534
aI9528
aI9530
aI7461
aI9531
aI9529
aI7440
aI9526
aI9527
aI8582
aI8476
aI9520
aI9521
aI7457
aI9524
as.