(dp1
I7552
(lp2
(lp3
I7552
aF1
aa(lp4
I7553
aF1
aa(lp5
I7555
aF1
aa(lp6
I7553
aF0.75
aa(lp7
I7555
aF1
aasI7553
(lp8
(lp9
I7552
aF1
aa(lp10
I7555
aF1
aasI7554
(lp11
(lp12
I7553
aF0.75
aa(lp13
I7555
aF1
aasI7555
(lp14
(lp15
I7552
aF1
aa(lp16
I7553
aF0.75
aasI-1
(lp17
I7571
aI7570
aI8768
aI7569
aI8770
aI7452
aI7568
aI8769
aI3699
aI7736
aI9209
aI9211
aI206
aI2623
aI205
aI169
aI3696
aI8967
aI4571
aI7450
aI7454
as.