(dp1
I7528
(lp2
(lp3
I7598
aF0.40000000000000002
aasI7529
(lp4
(lp5
I7598
aF0.40000000000000002
aasI7596
(lp6
(lp7
I7596
aF1
aa(lp8
I7598
aF1
aa(lp9
I7597
aF1
aa(lp10
I7598
aF0.40000000000000002
aasI7597
(lp11
(lp12
I7596
aF1
aasI7598
(lp13
(lp14
I7596
aF1
aasI-1
(lp15
I7751
aI7749
aI7748
aI7615
aI7531
aI7527
aI7613
aI7614
aI7612
aI7530
aI519
aI7763
aI7750
aI7526
aI7745
aI5161
aI6859
aI7525
aI7599
aI7690
as.