(dp1
I7624
(lp2
(lp3
I7625
aF1
aa(lp4
I7627
aF0.80000000000000004
aasI7625
(lp5
(lp6
I7625
aF1
aa(lp7
I7627
aF1
aa(lp8
I7626
aF1
aa(lp9
I7624
aF1
aa(lp10
I7734
aF1
aa(lp11
I7627
aF0.80000000000000004
aa(lp12
I7626
aF0.5
aa(lp13
I7624
aF0.42857142857142855
aasI7626
(lp14
(lp15
I7625
aF1
aa(lp16
I7627
aF0.80000000000000004
aasI7627
(lp17
(lp18
I7625
aF1
aa(lp19
I7626
aF0.5
aa(lp20
I7624
aF0.42857142857142855
aasI7763
(lp21
(lp22
I7624
aF0.42857142857142855
aasI3477
(lp23
(lp24
I7626
aF0.5
aasI7734
(lp25
(lp26
I7625
aF1
aasI-1
(lp27
I7733
aI7735
aI3160
aI6941
aI3161
aI865
aI6942
aI7558
aI3383
aI3937
aI7736
aI3344
aI580
aI866
aI7559
aI3479
aI7573
aI7077
as.