(dp1
I7624
(lp2
(lp3
I7625
aF0.75
aa(lp4
I7627
aF1
aasI7625
(lp5
(lp6
I7626
aF1
aa(lp7
I7627
aF1
aasI7626
(lp8
(lp9
I7626
aF1
aa(lp10
I7625
aF1
aa(lp11
I7627
aF1
aa(lp12
I7625
aF0.75
aa(lp13
I7627
aF1
aasI7627
(lp14
(lp15
I7626
aF1
aa(lp16
I7625
aF0.75
aasI-1
(lp17
I7529
aI4637
aI527
aI8273
aI8895
aI8361
aI9594
aI8891
aI8272
aI9641
aI8862
aI9573
aI8829
aI470
aI9642
aI4640
aI5344
aI6291
aI1702
aI10182
aI435
aI1884
as.