(dp1
I-1
(lp2
I7628
aI7630
aI7117
aI7629
aI6654
aI6721
aI4601
aI2382
aI7071
aI6690
aI1704
aI6960
aI6691
aI6962
aI10047
aI6987
aI7157
aI2974
aI6751
aI2348
aI3122
aI1707
aI7135
aI2972
asI7631
(lp3
(lp4
I7631
aF1
aas.