(dp1
I7702
(lp2
(lp3
I7642
aF0.59999999999999998
aasI7640
(lp4
(lp5
I7643
aF1
aa(lp6
I7642
aF0.59999999999999998
aasI7641
(lp7
(lp8
I7640
aF0.75
aasI7642
(lp9
(lp10
I7643
aF1
aa(lp11
I7640
aF0.75
aasI7643
(lp12
(lp13
I7643
aF1
aa(lp14
I7640
aF1
aa(lp15
I7642
aF1
aa(lp16
I7640
aF0.75
aa(lp17
I7642
aF0.59999999999999998
aasI-1
(lp18
I3363
aI7700
aI3361
aI2968
aI2969
aI7736
aI3364
aI8832
aI3362
aI7525
aI7701
aI7521
aI874
aI7542
aI8878
aI3379
aI7520
aI7558
aI3367
aI3377
as.