(dp1
I3204
(lp2
(lp3
I7655
aF0.5
aasI8066
(lp4
(lp5
I7655
aF0.5
aasI7652
(lp6
(lp7
I7652
aF1
aa(lp8
I7655
aF1
aa(lp9
I7655
aF0.5
aasI-1
(lp10
I591
aI3947
aI9018
aI1870
aI1868
aI590
aI4365
aI3734
aI8392
aI7989
aI8935
aI2053
aI3652
aI5606
aI335
aI3599
aI7991
aI10187
aI2059
aI4080
aI1306
aI2151
aI7695
asI7655
(lp11
(lp12
I7652
aF1
aas.