(dp1
I10057
(lp2
(lp3
I7658
aF0.5
aasI7658
(lp4
(lp5
I7659
aF1
aasI7659
(lp6
(lp7
I7659
aF1
aa(lp8
I7658
aF1
aa(lp9
I7658
aF0.5
aasI-1
(lp10
I1253
aI8994
aI5568
aI8912
aI509
aI1887
aI3399
aI7134
aI8995
aI533
aI4645
aI1869
aI4593
aI4592
aI7525
aI960
aI1348
aI7548
aI9572
aI8935
aI6986
aI3396
aI1261
asI6590
(lp11
(lp12
I7658
aF0.5
aas.