(dp1
I7712
(lp2
(lp3
I7713
aF1
aa(lp4
I7714
aF0.75
aasI7713
(lp5
(lp6
I7713
aF1
aa(lp7
I7714
aF1
aa(lp8
I7712
aF1
aa(lp9
I7714
aF0.75
aa(lp10
I7712
aF0.59999999999999998
aasI7714
(lp11
(lp12
I7713
aF1
aa(lp13
I7712
aF0.59999999999999998
aasI7715
(lp14
(lp15
I7712
aF0.59999999999999998
aasI7737
(lp16
(lp17
I7714
aF0.75
aasI-1
(lp18
I7583
aI3937
aI7719
aI3504
aI6777
aI7582
aI3505
aI7580
aI6776
aI7738
aI581
aI7558
aI6772
aI6942
aI9408
aI268
aI6775
aI7736
aI2177
aI582
aI897
as.