(dp1
I7712
(lp2
(lp3
I7714
aF1
aa(lp4
I7713
aF0.75
aasI7713
(lp5
(lp6
I7714
aF1
aa(lp7
I7712
aF0.59999999999999998
aasI7714
(lp8
(lp9
I7714
aF1
aa(lp10
I7713
aF1
aa(lp11
I7712
aF1
aa(lp12
I7713
aF0.75
aa(lp13
I7712
aF0.59999999999999998
aasI7715
(lp14
(lp15
I7712
aF0.59999999999999998
aasI-1
(lp16
I7737
aI7738
aI7582
aI7719
aI7580
aI3504
aI3937
aI7558
aI7736
aI2984
aI7716
aI7718
aI6776
aI268
aI7572
aI227
aI8898
aI6777
aI9409
aI6775
aI7559
asI7583
(lp17
(lp18
I7713
aF0.75
aas.