(dp1
I2756
(lp2
(lp3
I7722
aF0.40000000000000002
aasI7720
(lp4
(lp5
I7720
aF1
aa(lp6
I7722
aF1
aa(lp7
I7723
aF1
aa(lp8
I7722
aF0.40000000000000002
aasI7722
(lp9
(lp10
I7720
aF1
aasI7723
(lp11
(lp12
I7720
aF1
aasI720
(lp13
(lp14
I7722
aF0.40000000000000002
aasI-1
(lp15
I721
aI85
aI282
aI4649
aI3930
aI4648
aI86
aI722
aI5621
aI210
aI747
aI2840
aI284
aI4219
aI1956
aI84
aI2690
aI138
aI160
aI746
aI723
as.