(dp1
I1606
(lp2
(lp3
I7724
aF0.59999999999999998
aasI1607
(lp4
(lp5
I7726
aF0.5
aasI7724
(lp6
(lp7
I7725
aF1
aa(lp8
I7726
aF0.5
aasI7725
(lp9
(lp10
I7725
aF1
aa(lp11
I7724
aF1
aa(lp12
I7727
aF1
aa(lp13
I7726
aF1
aa(lp14
I7724
aF0.59999999999999998
aa(lp15
I7726
aF0.5
aasI7726
(lp16
(lp17
I7725
aF1
aa(lp18
I7724
aF0.59999999999999998
aasI7727
(lp19
(lp20
I7725
aF1
aasI-1
(lp21
I1598
aI8218
aI1609
aI1823
aI430
aI1619
aI450
aI1602
aI9980
aI1096
aI1600
aI5709
aI10005
aI1617
aI4741
aI4342
aI4242
aI167
aI4055
aI1097
as.