(dp1
I7729
(lp2
(lp3
I7729
aF1
aa(lp4
I983
aF1
aa(lp5
I7730
aF1
aa(lp6
I983
aF0.40000000000000002
aasI7730
(lp7
(lp8
I7729
aF1
aasI980
(lp9
(lp10
I983
aF0.40000000000000002
aasI982
(lp11
(lp12
I983
aF0.40000000000000002
aasI983
(lp13
(lp14
I7729
aF1
aasI-1
(lp15
I3862
aI773
aI4825
aI1775
aI3582
aI775
aI7129
aI4901
aI1773
aI7146
aI2831
aI10174
aI1948
aI3720
aI10022
aI4356
aI1772
aI7144
aI7013
aI1774
aI7731
aI772
as.