(dp1
I7764
(lp2
(lp3
I7766
aF1
aa(lp4
I7765
aF0.80000000000000004
aa(lp5
I7767
aF0.80000000000000004
aasI7765
(lp6
(lp7
I7766
aF1
aa(lp8
I7764
aF0.80000000000000004
aa(lp9
I7767
aF0.80000000000000004
aasI7766
(lp10
(lp11
I7766
aF1
aa(lp12
I7765
aF1
aa(lp13
I7764
aF1
aa(lp14
I7767
aF1
aa(lp15
I7103
aF1
aa(lp16
I7765
aF0.80000000000000004
aa(lp17
I7764
aF0.80000000000000004
aa(lp18
I7767
aF0.80000000000000004
aasI7767
(lp19
(lp20
I7766
aF1
aa(lp21
I7765
aF0.80000000000000004
aa(lp22
I7764
aF0.80000000000000004
aasI-1
(lp23
I7101
aI7100
aI7102
aI8691
aI975
aI4773
aI7117
aI437
aI668
aI5733
aI316
aI4543
aI8688
aI10190
aI4224
aI1482
aI1920
aI5734
aI7502
aI7123
asI7103
(lp24
(lp25
I7766
aF1
aas.