(dp1
I7816
(lp2
(lp3
I7816
aF1
aa(lp4
I7817
aF1
aa(lp5
I7817
aF0.5
aasI7817
(lp6
(lp7
I7816
aF1
aasI8578
(lp8
(lp9
I7817
aF0.5
aasI-1
(lp10
I7844
aI8504
aI7822
aI8527
aI7819
aI9370
aI8432
aI8569
aI8562
aI8478
aI7801
aI8427
aI7811
aI7867
aI7815
aI7818
aI8508
aI8416
aI7305
aI7809
aI7808
aI8134
aI8561
asI8560
(lp11
(lp12
I7817
aF0.5
aas.