(dp1
I7816
(lp2
(lp3
I7818
aF1
aa(lp4
I7819
aF0.80000000000000004
aa(lp5
I7817
aF0.80000000000000004
aasI7817
(lp6
(lp7
I7818
aF1
aa(lp8
I7816
aF0.80000000000000004
aa(lp9
I7819
aF0.80000000000000004
aasI7818
(lp10
(lp11
I7818
aF1
aa(lp12
I7816
aF1
aa(lp13
I7819
aF1
aa(lp14
I7817
aF1
aa(lp15
I7803
aF1
aa(lp16
I7816
aF0.80000000000000004
aa(lp17
I7819
aF0.80000000000000004
aa(lp18
I7817
aF0.80000000000000004
aasI7819
(lp19
(lp20
I7818
aF1
aa(lp21
I7816
aF0.80000000000000004
aa(lp22
I7817
aF0.80000000000000004
aasI7803
(lp23
(lp24
I7818
aF1
aasI-1
(lp25
I7878
aI7801
aI7862
aI7810
aI7842
aI7811
aI7800
aI7798
aI1900
aI7797
aI7822
aI7870
aI7799
aI7814
aI7879
aI1636
aI7830
aI7846
aI7869
aI7876
as.