(dp1
I7819
(lp2
(lp3
I7822
aF1
aasI7820
(lp4
(lp5
I7822
aF1
aa(lp6
I7823
aF0.80000000000000004
aa(lp7
I7821
aF0.80000000000000004
aasI7821
(lp8
(lp9
I7822
aF1
aa(lp10
I7820
aF0.80000000000000004
aa(lp11
I7823
aF0.80000000000000004
aasI7822
(lp12
(lp13
I7822
aF1
aa(lp14
I7820
aF1
aa(lp15
I7823
aF1
aa(lp16
I7821
aF1
aa(lp17
I7819
aF1
aa(lp18
I7820
aF0.80000000000000004
aa(lp19
I7823
aF0.80000000000000004
aa(lp20
I7821
aF0.80000000000000004
aasI7823
(lp21
(lp22
I7822
aF1
aa(lp23
I7820
aF0.80000000000000004
aa(lp24
I7821
aF0.80000000000000004
aasI-1
(lp25
I7814
aI8466
aI7850
aI8581
aI4377
aI7864
aI7846
aI7844
aI7815
aI9347
aI1793
aI8125
aI7816
aI8576
aI8564
aI8460
aI8071
aI7869
aI8394
aI8184
as.