(dp1
I7822
(lp2
(lp3
I7838
aF0.59999999999999998
aasI7838
(lp4
(lp5
I7836
aF1
aa(lp6
I7837
aF0.75
aasI7836
(lp7
(lp8
I7836
aF1
aa(lp9
I7837
aF1
aa(lp10
I7838
aF1
aa(lp11
I7837
aF0.75
aa(lp12
I7838
aF0.59999999999999998
aasI7837
(lp13
(lp14
I7836
aF1
aa(lp15
I7838
aF0.59999999999999998
aasI-1
(lp16
I7844
aI7823
aI7845
aI7797
aI7842
aI7820
aI7868
aI7846
aI7869
aI7867
aI7816
aI7847
aI7839
aI7819
aI7878
aI7801
aI7821
aI7862
aI7818
aI7879
asI7870
(lp17
(lp18
I7837
aF0.75
aas.