(dp1
I7840
(lp2
(lp3
I7841
aF1
aa(lp4
I7843
aF0.75
aasI7841
(lp5
(lp6
I7841
aF1
aa(lp7
I7843
aF1
aa(lp8
I7840
aF1
aa(lp9
I7843
aF0.75
aa(lp10
I7840
aF0.59999999999999998
aasI7842
(lp11
(lp12
I7840
aF0.59999999999999998
aasI7843
(lp13
(lp14
I7841
aF1
aa(lp15
I7840
aF0.59999999999999998
aasI7869
(lp16
(lp17
I7843
aF0.75
aasI-1
(lp18
I7962
aI7945
aI7877
aI7870
aI7868
aI7960
aI7871
aI7874
aI7876
aI7961
aI7944
aI7821
aI7860
aI7863
aI7861
aI7813
aI7862
aI7971
aI7824
aI7940
as.