(dp1
I7795
(lp2
(lp3
I7863
aF0.59999999999999998
aasI7860
(lp4
(lp5
I7861
aF1
aa(lp6
I7863
aF0.59999999999999998
aasI7861
(lp7
(lp8
I7861
aF1
aa(lp9
I7860
aF1
aa(lp10
I7863
aF1
aa(lp11
I7860
aF0.75
aa(lp12
I7863
aF0.59999999999999998
aasI7862
(lp13
(lp14
I7860
aF0.75
aasI7863
(lp15
(lp16
I7861
aF1
aa(lp17
I7860
aF0.75
aasI-1
(lp18
I7792
aI9183
aI7789
aI7893
aI7815
aI7864
aI7919
aI9041
aI7791
aI7971
aI7968
aI7943
aI7941
aI8490
aI9043
aI718
aI8491
aI7877
aI7794
aI7793
aI9347
as.