(dp1
I8467
(lp2
(lp3
I7866
aF0.5
aasI7864
(lp4
(lp5
I7866
aF0.5
aasI7866
(lp6
(lp7
I7867
aF1
aasI7867
(lp8
(lp9
I7867
aF1
aa(lp10
I7866
aF1
aa(lp11
I7866
aF0.5
aasI-1
(lp12
I707
aI8461
aI706
aI8582
aI1908
aI8413
aI4102
aI8579
aI8478
aI4869
aI4873
aI8422
aI4891
aI4802
aI7323
aI8460
aI8434
aI8505
aI8420
aI8561
aI9370
aI7370
as.