(dp1
I7876
(lp2
(lp3
I7877
aF1
aasI7877
(lp4
(lp5
I7877
aF1
aa(lp6
I7876
aF1
aa(lp7
I7958
aF1
aa(lp8
I7860
aF1
aa(lp9
I7956
aF1
aa(lp10
I7958
aF0.5
aa(lp11
I7956
aF0.66666666666666663
aasI7860
(lp12
(lp13
I7877
aF1
aasI7958
(lp14
(lp15
I7877
aF1
aa(lp16
I7956
aF0.66666666666666663
aasI7959
(lp17
(lp18
I7958
aF0.5
aa(lp19
I7956
aF0.66666666666666663
aasI7956
(lp20
(lp21
I7877
aF1
aa(lp22
I7958
aF0.5
aasI-1
(lp23
I7863
aI7879
aI7861
aI7821
aI7940
aI7957
aI7974
aI7862
aI7936
aI7971
aI7843
aI7820
aI7823
aI7824
aI7829
aI7941
aI7869
aI7828
aI7937
as.