(dp1
I7880
(lp2
(lp3
I7880
aF1
aa(lp4
I7883
aF1
aa(lp5
I7881
aF1
aa(lp6
I7883
aF0.75
aa(lp7
I7881
aF1
aasI7881
(lp8
(lp9
I7880
aF1
aa(lp10
I7883
aF0.75
aasI7882
(lp11
(lp12
I7883
aF0.75
aa(lp13
I7881
aF1
aasI7883
(lp14
(lp15
I7880
aF1
aa(lp16
I7881
aF1
aasI-1
(lp17
I7870
aI7868
aI7862
aI7878
aI7879
aI7869
aI7842
aI7823
aI7871
aI7876
aI7820
aI7860
aI7837
aI7292
aI7275
aI7293
aI7863
aI7867
aI7819
aI7273
aI7274
as.