(dp1
I7889
(lp2
(lp3
I7893
aF0.59999999999999998
aasI7890
(lp4
(lp5
I7894
aF0.42857142857142855
aasI7891
(lp6
(lp7
I7895
aF0.5
aasI7892
(lp8
(lp9
I7892
aF1
aa(lp10
I7893
aF1
aa(lp11
I7895
aF1
aa(lp12
I7894
aF1
aa(lp13
I7893
aF0.59999999999999998
aa(lp14
I7895
aF0.5
aa(lp15
I7894
aF0.42857142857142855
aasI7893
(lp16
(lp17
I7892
aF1
aasI7894
(lp18
(lp19
I7892
aF1
aa(lp20
I7895
aF0.5
aasI7895
(lp21
(lp22
I7892
aF1
aa(lp23
I7893
aF0.59999999999999998
aa(lp24
I7894
aF0.42857142857142855
aasI-1
(lp25
I7888
aI7964
aI7965
aI7982
aI7966
aI7967
aI7884
aI7815
aI7981
aI7885
aI7824
aI7947
aI7958
aI7946
aI9914
aI7821
aI8348
aI7980
as.