(dp1
I3584
(lp2
(lp3
I7897
aF1
aasI7896
(lp4
(lp5
I7897
aF1
aa(lp6
I7899
aF0.80000000000000004
aa(lp7
I7898
aF0.80000000000000004
aasI7897
(lp8
(lp9
I7897
aF1
aa(lp10
I7896
aF1
aa(lp11
I7899
aF1
aa(lp12
I7898
aF1
aa(lp13
I3584
aF1
aa(lp14
I7896
aF0.80000000000000004
aa(lp15
I7899
aF0.80000000000000004
aa(lp16
I7898
aF0.80000000000000004
aasI7898
(lp17
(lp18
I7897
aF1
aa(lp19
I7896
aF0.80000000000000004
aa(lp20
I7899
aF0.80000000000000004
aasI7899
(lp21
(lp22
I7897
aF1
aa(lp23
I7896
aF0.80000000000000004
aa(lp24
I7898
aF0.80000000000000004
aasI-1
(lp25
I6091
aI3585
aI6108
aI3108
aI3586
aI3587
aI8762
aI6088
aI6090
aI6111
aI6089
aI4578
aI480
aI670
aI2754
aI3110
aI6536
aI404
aI4512
aI9628
as.