(dp1
I7908
(lp2
(lp3
I7910
aF0.59999999999999998
aa(lp4
I7909
aF0.80000000000000004
aasI7909
(lp5
(lp6
I7911
aF1
aa(lp7
I7910
aF0.59999999999999998
aa(lp8
I7923
aF0.5
aasI7910
(lp9
(lp10
I7911
aF1
aa(lp11
I7909
aF0.80000000000000004
aasI7911
(lp12
(lp13
I7911
aF1
aa(lp14
I7910
aF1
aa(lp15
I7909
aF1
aa(lp16
I7923
aF1
aa(lp17
I7910
aF0.59999999999999998
aa(lp18
I7909
aF0.80000000000000004
aa(lp19
I7923
aF0.5
aasI7920
(lp20
(lp21
I7923
aF0.5
aasI7923
(lp22
(lp23
I7911
aF1
aasI-1
(lp24
I7984
aI7985
aI7913
aI7944
aI7912
aI7873
aI7945
aI7872
aI7915
aI7951
aI7914
aI7946
aI7918
aI7947
aI7917
aI7924
aI7970
aI7925
aI7921
as.