(dp1
I-1
(lp2
I2751
aI8527
aI2726
aI9261
aI9345
aI7862
aI9186
aI9344
aI7941
aI7968
aI2749
aI2699
aI7795
aI8415
aI7813
aI9302
aI2747
aI2748
aI9224
aI2746
aI2698
asI7916
(lp3
(lp4
I7918
aF1
aa(lp5
I7919
aF1
aasI7917
(lp6
(lp7
I7916
aF0.75
aa(lp8
I7919
aF1
aasI7918
(lp9
(lp10
I7918
aF1
aa(lp11
I7916
aF1
aa(lp12
I7919
aF1
aa(lp13
I7916
aF0.75
aa(lp14
I7919
aF1
aasI7919
(lp15
(lp16
I7918
aF1
aa(lp17
I7916
aF0.75
aas.