(dp1
I792
(lp2
(lp3
I792
aF1
aa(lp4
I793
aF1
aa(lp5
I794
aF1
aa(lp6
I793
aF0.75
aa(lp7
I794
aF1
aasI793
(lp8
(lp9
I792
aF1
aa(lp10
I794
aF1
aasI794
(lp11
(lp12
I792
aF1
aa(lp13
I793
aF0.75
aasI795
(lp14
(lp15
I793
aF0.75
aa(lp16
I794
aF1
aasI-1
(lp17
I814
aI4811
aI4965
aI813
aI3798
aI769
aI3747
aI4194
aI768
aI4195
aI3986
aI6345
aI4890
aI4765
aI5564
aI812
aI6352
aI4810
aI5708
aI4929
aI4283
as.