(dp1
I7972
(lp2
(lp3
I7947
aF1
aa(lp4
I7946
aF0.5
aa(lp5
I7973
aF0.5714285714285714
aa(lp6
I7987
aF0.375
aasI7973
(lp7
(lp8
I7947
aF1
aa(lp9
I7972
aF0.42857142857142855
aasI7975
(lp10
(lp11
I7972
aF0.42857142857142855
aa(lp12
I7973
aF0.5714285714285714
aasI7944
(lp13
(lp14
I7946
aF0.5
aasI7946
(lp15
(lp16
I7947
aF1
aasI7947
(lp17
(lp18
I7947
aF1
aa(lp19
I7946
aF1
aa(lp20
I7972
aF1
aa(lp21
I7973
aF1
aa(lp22
I7987
aF1
aa(lp23
I7946
aF0.5
aa(lp24
I7972
aF0.42857142857142855
aa(lp25
I7973
aF0.5714285714285714
aa(lp26
I7987
aF0.375
aasI7986
(lp27
(lp28
I7987
aF0.375
aasI7987
(lp29
(lp30
I7947
aF1
aasI-1
(lp31
I7974
aI7959
aI7941
aI7981
aI7948
aI7964
aI7908
aI7958
aI7950
aI7971
aI7982
aI7970
aI7949
aI7957
aI7945
aI7795
aI7951
as.