(dp1
I2660
(lp2
(lp3
I7967
aF0.5
aasI7964
(lp4
(lp5
I7967
aF0.5
aasI-1
(lp6
I8118
aI7965
aI7855
aI7954
aI7986
aI8450
aI4797
aI4089
aI4981
aI8451
aI7922
aI8448
aI8522
aI7846
aI7818
aI4891
aI8116
aI4088
aI6724
aI8507
aI7882
aI7792
asI7966
(lp7
(lp8
I7966
aF1
aa(lp9
I7967
aF1
aa(lp10
I7967
aF0.5
aasI7967
(lp11
(lp12
I7966
aF1
aas.