(dp1
I7972
(lp2
(lp3
I7972
aF1
aa(lp4
I7973
aF1
aa(lp5
I7947
aF1
aa(lp6
I7975
aF1
aa(lp7
I7974
aF1
aa(lp8
I7987
aF1
aa(lp9
I7973
aF0.66666666666666663
aa(lp10
I7947
aF0.42857142857142855
aa(lp11
I7975
aF0.5714285714285714
aa(lp12
I7974
aF0.375
aa(lp13
I7987
aF0.33333333333333331
aasI7973
(lp14
(lp15
I7972
aF1
aa(lp16
I7947
aF0.42857142857142855
aa(lp17
I7975
aF0.5714285714285714
aasI7974
(lp18
(lp19
I7972
aF1
aa(lp20
I7975
aF0.5714285714285714
aasI7975
(lp21
(lp22
I7972
aF1
aa(lp23
I7973
aF0.66666666666666663
aa(lp24
I7974
aF0.375
aasI7946
(lp25
(lp26
I7947
aF0.42857142857142855
aasI7947
(lp27
(lp28
I7972
aF1
aa(lp29
I7973
aF0.66666666666666663
aa(lp30
I7987
aF0.33333333333333331
aasI7986
(lp31
(lp32
I7987
aF0.33333333333333331
aasI7987
(lp33
(lp34
I7972
aF1
aasI7959
(lp35
(lp36
I7974
aF0.375
aasI-1
(lp37
I7981
aI7941
aI7964
aI7827
aI7982
aI7958
aI7965
aI7978
aI7948
aI7957
aI7950
aI7949
aI7940
aI7971
aI7967
aI7943
as.