(dp1
I8002
(lp2
(lp3
I8040
aF0.75
aasI8040
(lp4
(lp5
I8041
aF1
aa(lp6
I8042
aF0.59999999999999998
aasI8041
(lp7
(lp8
I8041
aF1
aa(lp9
I8040
aF1
aa(lp10
I8042
aF1
aa(lp11
I8040
aF0.75
aa(lp12
I8042
aF0.59999999999999998
aasI8042
(lp13
(lp14
I8041
aF1
aa(lp15
I8040
aF0.75
aasI8047
(lp16
(lp17
I8042
aF0.59999999999999998
aasI-1
(lp18
I8000
aI8079
aI8073
aI8044
aI8078
aI8045
aI2978
aI8001
aI8559
aI8074
aI8168
aI8077
aI8169
aI8043
aI8072
aI8014
aI8123
aI8003
aI8016
aI8076
aI8179
as.