(dp1
I8040
(lp2
(lp3
I8043
aF0.5
aasI8042
(lp4
(lp5
I8043
aF0.5
aasI8043
(lp6
(lp7
I8046
aF1
aasI-1
(lp8
I8108
aI8109
aI8110
aI8048
aI8045
aI8006
aI8122
aI8066
aI8024
aI8026
aI8386
aI8394
aI8004
aI8049
aI8051
aI8395
aI8044
aI8025
aI8027
aI8007
aI8065
aI8012
aI7993
asI8046
(lp9
(lp10
I8046
aF1
aa(lp11
I8043
aF1
aa(lp12
I8043
aF0.5
aas.