(dp1
I896
(lp2
(lp3
I807
aF0.59999999999999998
aasI805
(lp4
(lp5
I805
aF1
aa(lp6
I806
aF1
aa(lp7
I807
aF1
aa(lp8
I806
aF0.75
aa(lp9
I807
aF0.59999999999999998
aasI806
(lp10
(lp11
I805
aF1
aa(lp12
I807
aF0.59999999999999998
aasI807
(lp13
(lp14
I805
aF1
aa(lp15
I806
aF0.75
aasI812
(lp16
(lp17
I806
aF0.75
aasI-1
(lp18
I813
aI814
aI136
aI810
aI5645
aI885
aI859
aI808
aI815
aI4624
aI833
aI615
aI809
aI5761
aI4924
aI811
aI858
aI893
aI834
aI835
as.