(dp1
I8068
(lp2
(lp3
I8068
aF1
aa(lp4
I8069
aF1
aa(lp5
I8070
aF1
aa(lp6
I8069
aF0.75
aa(lp7
I8070
aF0.59999999999999998
aasI8069
(lp8
(lp9
I8068
aF1
aa(lp10
I8070
aF0.59999999999999998
aasI8070
(lp11
(lp12
I8068
aF1
aa(lp13
I8069
aF0.75
aasI8396
(lp14
(lp15
I8070
aF0.59999999999999998
aasI1901
(lp16
(lp17
I8069
aF0.75
aasI-1
(lp18
I8393
aI8080
aI8394
aI8071
aI8059
aI8081
aI8111
aI8065
aI8004
aI8013
aI8581
aI4084
aI3201
aI8075
aI8102
aI8007
aI1903
aI8392
aI8012
aI8135
aI8120
as.