(dp1
I8088
(lp2
(lp3
I8089
aF1
aa(lp4
I8091
aF1
aa(lp5
I8090
aF0.59999999999999998
aasI8089
(lp6
(lp7
I8089
aF1
aa(lp8
I8088
aF1
aa(lp9
I8091
aF1
aa(lp10
I8090
aF1
aa(lp11
I8088
aF1
aa(lp12
I8091
aF1
aa(lp13
I8090
aF0.59999999999999998
aasI8090
(lp14
(lp15
I8089
aF1
aa(lp16
I8088
aF1
aa(lp17
I8091
aF1
aasI8091
(lp18
(lp19
I8089
aF1
aa(lp20
I8088
aF1
aasI8029
(lp21
(lp22
I8090
aF0.59999999999999998
aasI-1
(lp23
I8071
aI8396
aI8031
aI8012
aI8399
aI9463
aI8082
aI8098
aI8081
aI8084
aI8085
aI8086
aI8097
aI8397
aI8576
aI8117
aI7990
aI8456
aI8466
aI4971
aI8422
as.