(dp1
I8096
(lp2
(lp3
I8099
aF1
aa(lp4
I8098
aF0.80000000000000004
aasI8097
(lp5
(lp6
I8096
aF0.59999999999999998
aa(lp7
I8098
aF0.80000000000000004
aasI8098
(lp8
(lp9
I8099
aF1
aa(lp10
I8096
aF0.59999999999999998
aasI8099
(lp11
(lp12
I8099
aF1
aa(lp13
I8096
aF1
aa(lp14
I8098
aF1
aa(lp15
I6727
aF1
aa(lp16
I8096
aF0.59999999999999998
aa(lp17
I8098
aF0.80000000000000004
aasI6727
(lp18
(lp19
I8099
aF1
aasI-1
(lp20
I8019
aI7989
aI3783
aI1868
aI1870
aI7988
aI7990
aI6881
aI7991
aI1483
aI411
aI544
aI3773
aI8396
aI1871
aI741
aI5611
aI3832
aI6880
aI1869
as.