(dp1
I8065
(lp2
(lp3
I8122
aF0.59999999999999998
aasI8120
(lp4
(lp5
I8123
aF0.75
aasI8121
(lp6
(lp7
I8121
aF1
aa(lp8
I8123
aF1
aa(lp9
I8122
aF1
aa(lp10
I8123
aF0.75
aa(lp11
I8122
aF0.59999999999999998
aasI8122
(lp12
(lp13
I8121
aF1
aa(lp14
I8123
aF0.75
aasI8123
(lp15
(lp16
I8121
aF1
aa(lp17
I8122
aF0.59999999999999998
aasI-1
(lp18
I8389
aI8066
aI8067
aI8087
aI8031
aI8073
aI8395
aI8064
aI8394
aI8391
aI8072
aI8075
aI8108
aI8388
aI8035
aI8030
aI8390
aI8017
aI8110
aI7994
as.