(dp1
I8128
(lp2
(lp3
I8130
aF1
aa(lp4
I8131
aF1
aa(lp5
I8129
aF1
aasI8129
(lp6
(lp7
I8130
aF1
aa(lp8
I8131
aF1
aa(lp9
I8128
aF1
aasI8130
(lp10
(lp11
I8130
aF1
aa(lp12
I8131
aF1
aa(lp13
I8129
aF1
aa(lp14
I8128
aF1
aa(lp15
I8131
aF1
aa(lp16
I8129
aF1
aa(lp17
I8128
aF1
aasI8131
(lp18
(lp19
I8130
aF1
aa(lp20
I8129
aF1
aa(lp21
I8128
aF1
aasI-1
(lp22
I8471
aI4806
aI4924
aI8447
aI4785
aI8111
aI8415
aI4847
aI4927
aI4920
aI4810
aI4819
aI8104
aI4983
aI5012
aI7350
aI8477
aI1893
aI8412
aI9521
aI4862
as.