(dp1
I8144
(lp2
(lp3
I8146
aF1
aasI8145
(lp4
(lp5
I8144
aF0.40000000000000002
aasI8146
(lp6
(lp7
I8146
aF1
aa(lp8
I8144
aF1
aa(lp9
I8149
aF1
aa(lp10
I8144
aF0.40000000000000002
aa(lp11
I8149
aF0.5
aasI8148
(lp12
(lp13
I8149
aF0.5
aasI8149
(lp14
(lp15
I8146
aF1
aasI8150
(lp16
(lp17
I8144
aF0.40000000000000002
aa(lp18
I8149
aF0.5
aasI-1
(lp19
I8514
aI8512
aI8513
aI8498
aI8499
aI8407
aI8405
aI8500
aI8528
aI8515
aI8497
aI8503
aI8532
aI8440
aI8530
aI8535
aI8550
aI8502
aI8531
as.