(dp1
I8512
(lp2
(lp3
I8148
aF0.59999999999999998
aasI8514
(lp4
(lp5
I8150
aF0.5
aa(lp6
I8146
aF0.42857142857142855
aasI8144
(lp7
(lp8
I8146
aF0.42857142857142855
aasI8146
(lp9
(lp10
I8149
aF1
aasI8148
(lp11
(lp12
I8149
aF1
aa(lp13
I8150
aF0.5
aasI8149
(lp14
(lp15
I8149
aF1
aa(lp16
I8148
aF1
aa(lp17
I8150
aF1
aa(lp18
I8146
aF1
aa(lp19
I8148
aF0.59999999999999998
aa(lp20
I8150
aF0.5
aa(lp21
I8146
aF0.42857142857142855
aasI8150
(lp22
(lp23
I8149
aF1
aa(lp24
I8148
aF0.59999999999999998
aasI-1
(lp25
I8513
aI8440
aI8498
aI8499
aI8151
aI8441
aI8448
aI8421
aI8532
aI8503
aI8443
aI8500
aI8515
aI8531
aI8145
aI8143
aI8497
aI8407
as.