(dp1
I-1
(lp2
I8423
aI2393
aI8580
aI7051
aI11
aI3101
aI8583
aI8539
aI8
aI7905
aI8127
aI3480
aI8528
aI3827
aI8440
aI7692
aI8533
aI6724
aI8513
aI8431
aI2384
asI8148
(lp3
(lp4
I8150
aF0.5
aasI8149
(lp5
(lp6
I8150
aF0.5
aasI8150
(lp7
(lp8
I8151
aF1
aasI8151
(lp9
(lp10
I8151
aF1
aa(lp11
I8150
aF1
aa(lp12
I8150
aF0.5
aas.