(dp1
I8164
(lp2
(lp3
I8164
aF1
aa(lp4
I8165
aF1
aa(lp5
I8166
aF1
aa(lp6
I6961
aF1
aa(lp7
I3428
aF1
aa(lp8
I3881
aF1
aa(lp9
I8165
aF0.42857142857142855
aa(lp10
I8166
aF0.5714285714285714
aa(lp11
I3881
aF0.375
aasI8165
(lp12
(lp13
I8164
aF1
aa(lp14
I8166
aF0.5714285714285714
aasI8166
(lp15
(lp16
I8164
aF1
aa(lp17
I8165
aF0.42857142857142855
aa(lp18
I3881
aF0.375
aasI8167
(lp19
(lp20
I8165
aF0.42857142857142855
aasI3881
(lp21
(lp22
I8164
aF1
aasI3883
(lp23
(lp24
I3881
aF0.375
aasI6961
(lp25
(lp26
I8164
aF1
aa(lp27
I8166
aF0.5714285714285714
aasI3428
(lp28
(lp29
I8164
aF1
aasI-1
(lp30
I6963
aI10183
aI3693
aI1481
aI3692
aI9524
aI9526
aI2538
aI9525
aI9522
aI9520
aI6962
aI10180
aI3695
aI9521
aI2379
aI2380
aI9529
aI3694
as.