(dp1
I896
(lp2
(lp3
I820
aF1
aasI820
(lp4
(lp5
I820
aF1
aa(lp6
I821
aF1
aa(lp7
I822
aF1
aa(lp8
I823
aF1
aa(lp9
I896
aF1
aa(lp10
I821
aF0.80000000000000004
aa(lp11
I822
aF0.80000000000000004
aa(lp12
I823
aF0.80000000000000004
aasI821
(lp13
(lp14
I820
aF1
aa(lp15
I822
aF0.80000000000000004
aa(lp16
I823
aF0.80000000000000004
aasI822
(lp17
(lp18
I820
aF1
aa(lp19
I821
aF0.80000000000000004
aa(lp20
I823
aF0.80000000000000004
aasI823
(lp21
(lp22
I820
aF1
aa(lp23
I821
aF0.80000000000000004
aa(lp24
I822
aF0.80000000000000004
aasI-1
(lp25
I897
aI895
aI894
aI884
aI887
aI898
aI830
aI61
aI899
aI811
aI810
aI892
aI888
aI809
aI828
aI62
aI886
aI63
aI808
aI829
as.