(dp1
I8241
(lp2
(lp3
I8245
aF1
aa(lp4
I8246
aF0.66666666666666663
aasI8244
(lp5
(lp6
I8245
aF1
aa(lp7
I8247
aF0.5
aa(lp8
I8246
aF0.66666666666666663
aasI8245
(lp9
(lp10
I8245
aF1
aa(lp11
I8244
aF1
aa(lp12
I8241
aF1
aa(lp13
I8247
aF1
aa(lp14
I8246
aF1
aa(lp15
I8244
aF0.80000000000000004
aa(lp16
I8247
aF0.5
aa(lp17
I8246
aF0.66666666666666663
aasI8246
(lp18
(lp19
I8245
aF1
aa(lp20
I8244
aF0.80000000000000004
aasI8247
(lp21
(lp22
I8245
aF1
aa(lp23
I8244
aF0.80000000000000004
aasI5148
(lp24
(lp25
I8247
aF0.5
aasI-1
(lp26
I5150
aI5132
aI4799
aI759
aI5133
aI4901
aI8256
aI4195
aI8299
aI3953
aI5304
aI3720
aI216
aI4911
aI4227
aI2831
aI6535
aI4105
aI4247
aI6190
as.