(dp1
I8286
(lp2
(lp3
I8285
aF1
aa(lp4
I8284
aF0.80000000000000004
aa(lp5
I8287
aF0.80000000000000004
aasI8311
(lp6
(lp7
I8285
aF1
aasI8284
(lp8
(lp9
I8285
aF1
aa(lp10
I8286
aF0.80000000000000004
aa(lp11
I8287
aF0.80000000000000004
aasI8285
(lp12
(lp13
I8285
aF1
aa(lp14
I8284
aF1
aa(lp15
I8286
aF1
aa(lp16
I8287
aF1
aa(lp17
I8311
aF1
aa(lp18
I8284
aF0.80000000000000004
aa(lp19
I8286
aF0.80000000000000004
aa(lp20
I8287
aF0.80000000000000004
aasI-1
(lp21
I8309
aI8308
aI8303
aI8310
aI8300
aI8699
aI8301
aI1957
aI8629
aI8306
aI8283
aI8692
aI5036
aI8302
aI5038
aI2435
aI1959
aI8630
aI5693
aI8928
asI8287
(lp22
(lp23
I8285
aF1
aa(lp24
I8284
aF0.80000000000000004
aa(lp25
I8286
aF0.80000000000000004
aas.