(dp1
I-1
(lp2
I8309
aI8311
aI8301
aI8308
aI2434
aI8300
aI8303
aI2435
aI885
aI1957
aI2432
aI7397
aI8310
aI8630
aI6563
aI8304
aI8629
aI8628
aI5037
aI5038
aI1959
asI8284
(lp3
(lp4
I8287
aF1
aa(lp5
I8286
aF1
aa(lp6
I8285
aF1
aasI8285
(lp7
(lp8
I8287
aF1
aa(lp9
I8286
aF1
aa(lp10
I8284
aF1
aasI8286
(lp11
(lp12
I8287
aF1
aa(lp13
I8284
aF1
aa(lp14
I8285
aF1
aasI8287
(lp15
(lp16
I8287
aF1
aa(lp17
I8286
aF1
aa(lp18
I8284
aF1
aa(lp19
I8285
aF1
aa(lp20
I8286
aF1
aa(lp21
I8284
aF1
aa(lp22
I8285
aF1
aas.