(dp1
I-1
(lp2
I8285
aI8286
aI8287
aI885
aI4766
aI8306
aI8304
aI887
aI886
aI7396
aI8305
aI4936
aI8298
aI8301
aI7397
aI8307
aI8284
aI5917
aI5148
aI8297
aI5693
asI8308
(lp3
(lp4
I8310
aF1
aa(lp5
I8309
aF1
aasI8309
(lp6
(lp7
I8310
aF1
aa(lp8
I8308
aF0.75
aasI8310
(lp9
(lp10
I8310
aF1
aa(lp11
I8308
aF1
aa(lp12
I8309
aF1
aa(lp13
I8308
aF0.75
aa(lp14
I8309
aF1
aasI8311
(lp15
(lp16
I8308
aF0.75
aa(lp17
I8309
aF1
aas.