(dp1
I-1
(lp2
I8319
aI8350
aI8318
aI8287
aI8285
aI8284
aI8294
aI8295
aI8316
aI8254
aI8317
aI1790
aI8286
aI1767
aI8347
aI8253
aI8260
aI8281
aI9710
aI7790
aI1791
asI8308
(lp3
(lp4
I8311
aF1
aa(lp5
I8309
aF1
aa(lp6
I8310
aF1
aasI8309
(lp7
(lp8
I8311
aF1
aa(lp9
I8308
aF1
aa(lp10
I8310
aF1
aasI8310
(lp11
(lp12
I8311
aF1
aa(lp13
I8309
aF1
aa(lp14
I8308
aF1
aasI8311
(lp15
(lp16
I8311
aF1
aa(lp17
I8309
aF1
aa(lp18
I8308
aF1
aa(lp19
I8310
aF1
aa(lp20
I8309
aF1
aa(lp21
I8308
aF1
aa(lp22
I8310
aF1
aas.