(dp1
I9777
(lp2
(lp3
I8334
aF0.5
aasI-1
(lp4
I629
aI630
aI628
aI349
aI3369
aI631
aI5582
aI9948
aI4582
aI9951
aI9934
aI224
aI80
aI5536
aI3368
aI538
aI4580
aI82
aI6025
aI4038
aI508
aI7171
aI4583
asI8333
(lp5
(lp6
I8334
aF0.5
aasI8334
(lp7
(lp8
I8335
aF1
aasI8335
(lp9
(lp10
I8335
aF1
aa(lp11
I8334
aF1
aa(lp12
I8334
aF0.5
aas.