(dp1
I-1
(lp2
I8377
aI3184
aI2368
aI3187
aI2371
aI6495
aI5896
aI6968
aI6332
aI3281
aI3186
aI2236
aI6971
aI6087
aI3280
aI6493
aI6970
aI3223
aI6494
aI3221
aI6997
asI8380
(lp3
(lp4
I8381
aF1
aa(lp5
I8383
aF1
aa(lp6
I8382
aF1
aasI8381
(lp7
(lp8
I8381
aF1
aa(lp9
I8380
aF1
aa(lp10
I8383
aF1
aa(lp11
I8382
aF1
aa(lp12
I8380
aF1
aa(lp13
I8383
aF1
aa(lp14
I8382
aF1
aasI8382
(lp15
(lp16
I8381
aF1
aa(lp17
I8380
aF1
aa(lp18
I8383
aF1
aasI8383
(lp19
(lp20
I8381
aF1
aa(lp21
I8380
aF1
aa(lp22
I8382
aF1
aas.