(dp1
I8382
(lp2
(lp3
I8383
aF1
aa(lp4
I8380
aF0.80000000000000004
aa(lp5
I8381
aF0.80000000000000004
aasI8379
(lp6
(lp7
I8383
aF1
aasI8380
(lp8
(lp9
I8383
aF1
aa(lp10
I8381
aF0.80000000000000004
aa(lp11
I8382
aF0.80000000000000004
aasI8381
(lp12
(lp13
I8383
aF1
aa(lp14
I8380
aF0.80000000000000004
aa(lp15
I8382
aF0.80000000000000004
aasI-1
(lp16
I2368
aI6332
aI3187
aI3184
aI6495
aI3281
aI2239
aI6968
aI6087
aI2278
aI8748
aI2371
aI2236
aI3280
aI9985
aI1324
aI3223
aI5896
aI8750
aI6224
asI8383
(lp17
(lp18
I8383
aF1
aa(lp19
I8380
aF1
aa(lp20
I8381
aF1
aa(lp21
I8382
aF1
aa(lp22
I8379
aF1
aa(lp23
I8380
aF0.80000000000000004
aa(lp24
I8381
aF0.80000000000000004
aa(lp25
I8382
aF0.80000000000000004
aas.