(dp1
I-1
(lp2
I8396
aI8107
aI3734
aI8070
aI647
aI4103
aI8005
aI8124
aI7402
aI8145
aI6379
aI8069
aI8393
aI4830
aI1901
aI6726
aI628
aI1900
aI8004
aI7401
aI8126
aI4101
asI8388
(lp3
(lp4
I8390
aF1
aa(lp5
I8389
aF0.75
aasI8389
(lp6
(lp7
I8390
aF1
aa(lp8
I8388
aF1
aasI8390
(lp9
(lp10
I8390
aF1
aa(lp11
I8389
aF1
aa(lp12
I8388
aF1
aa(lp13
I8389
aF0.75
aa(lp14
I8388
aF1
aasI8391
(lp15
(lp16
I8389
aF0.75
aa(lp17
I8388
aF1
aas.