(dp1
I-1
(lp2
I8067
aI8394
aI8088
aI8066
aI8081
aI6873
aI8395
aI8463
aI3007
aI8393
aI8071
aI8022
aI8397
aI8065
aI8075
aI1911
aI7989
aI8398
aI8013
aI8007
aI8059
asI8388
(lp3
(lp4
I8391
aF1
aa(lp5
I8389
aF1
aasI8389
(lp6
(lp7
I8391
aF1
aa(lp8
I8388
aF0.75
aasI8390
(lp9
(lp10
I8388
aF0.75
aa(lp11
I8389
aF1
aasI8391
(lp12
(lp13
I8391
aF1
aa(lp14
I8388
aF1
aa(lp15
I8389
aF1
aa(lp16
I8388
aF0.75
aa(lp17
I8389
aF1
aas.