(dp1
I8065
(lp2
(lp3
I8393
aF0.5
aa(lp4
I8392
aF0.66666666666666663
aa(lp5
I8012
aF0.375
aasI8392
(lp6
(lp7
I8394
aF1
aa(lp8
I8393
aF0.5
aasI8393
(lp9
(lp10
I8394
aF1
aa(lp11
I8392
aF0.66666666666666663
aa(lp12
I8395
aF0.42857142857142855
aasI8394
(lp13
(lp14
I8394
aF1
aa(lp15
I8393
aF1
aa(lp16
I8392
aF1
aa(lp17
I8395
aF1
aa(lp18
I8012
aF1
aa(lp19
I8393
aF0.5
aa(lp20
I8392
aF0.66666666666666663
aa(lp21
I8395
aF0.42857142857142855
aa(lp22
I8012
aF0.375
aasI8395
(lp23
(lp24
I8394
aF1
aasI8012
(lp25
(lp26
I8394
aF1
aasI8013
(lp27
(lp28
I8012
aF0.375
aasI8111
(lp29
(lp30
I8395
aF0.42857142857142855
aasI-1
(lp31
I8066
aI8064
aI8007
aI8110
aI4831
aI2094
aI8067
aI7990
aI4101
aI2088
aI8463
aI4942
aI4839
aI5013
aI4084
aI4086
aI4087
aI8398
as.