(dp1
I8388
(lp2
(lp3
I8394
aF0.5
aa(lp4
I8392
aF0.66666666666666663
aasI8005
(lp5
(lp6
I8393
aF0.42857142857142855
aasI8006
(lp7
(lp8
I8395
aF1
aasI8392
(lp9
(lp10
I8395
aF1
aa(lp11
I8394
aF0.5
aa(lp12
I8393
aF0.42857142857142855
aasI8393
(lp13
(lp14
I8395
aF1
aa(lp15
I8392
aF0.66666666666666663
aasI8394
(lp16
(lp17
I8395
aF1
aasI8395
(lp18
(lp19
I8395
aF1
aa(lp20
I8394
aF1
aa(lp21
I8392
aF1
aa(lp22
I8393
aF1
aa(lp23
I8006
aF1
aa(lp24
I8394
aF0.5
aa(lp25
I8392
aF0.66666666666666663
aa(lp26
I8393
aF0.42857142857142855
aasI-1
(lp27
I8391
aI8120
aI8389
aI8390
aI8004
aI8066
aI8067
aI8065
aI8087
aI8123
aI8064
aI8108
aI8122
aI8075
aI8072
aI8012
aI8073
aI8121
as.