(dp1
I4860
(lp2
(lp3
I8404
aF0.5
aasI8404
(lp4
(lp5
I8406
aF1
aasI-1
(lp6
I8405
aI4810
aI4375
aI4928
aI3986
aI4863
aI4862
aI4088
aI4847
aI4929
aI4374
aI3734
aI5013
aI4837
aI4981
aI4861
aI4931
aI4363
aI5640
aI7349
aI4941
asI8406
(lp7
(lp8
I8406
aF1
aa(lp9
I8404
aF1
aa(lp10
I8404
aF0.5
aasI8407
(lp11
(lp12
I8404
aF0.5
aas.