(dp1
I8425
(lp2
(lp3
I8425
aF1
aa(lp4
I8426
aF1
aa(lp5
I8465
aF1
aa(lp6
I8426
aF0.40000000000000002
aa(lp7
I8465
aF0.5
aasI8426
(lp8
(lp9
I8425
aF1
aasI8465
(lp10
(lp11
I8425
aF1
aasI8466
(lp12
(lp13
I8465
aF0.5
aasI8467
(lp14
(lp15
I8426
aF0.40000000000000002
aa(lp16
I8465
aF0.5
aasI8442
(lp17
(lp18
I8426
aF0.40000000000000002
aasI-1
(lp19
I4847
aI9521
aI4924
aI4852
aI4853
aI8145
aI4878
aI9520
aI4928
aI4862
aI3082
aI4375
aI4844
aI4872
aI4863
aI8427
aI5013
aI4860
aI4846
aI8111
aI4873
aI3083
as.