(dp1
I8582
(lp2
(lp3
I8467
aF1
aasI8465
(lp4
(lp5
I8467
aF1
aasI8467
(lp6
(lp7
I8467
aF1
aa(lp8
I8465
aF1
aa(lp9
I8479
aF1
aa(lp10
I8477
aF1
aa(lp11
I8582
aF1
aa(lp12
I8479
aF0.5
aa(lp13
I8477
aF0.66666666666666663
aasI8476
(lp14
(lp15
I8479
aF0.5
aa(lp16
I8477
aF0.66666666666666663
aasI8477
(lp17
(lp18
I8467
aF1
aa(lp19
I8479
aF0.5
aasI-1
(lp20
I8461
aI7369
aI8153
aI7352
aI8460
aI8426
aI7354
aI8413
aI8435
aI9368
aI8457
aI7344
aI8473
aI4917
aI8474
aI8124
aI1908
aI7350
aI8155
asI8479
(lp21
(lp22
I8467
aF1
aa(lp23
I8477
aF0.66666666666666663
aas.