(dp1
I-1
(lp2
I8458
aI8448
aI8480
aI8531
aI8151
aI8147
aI8482
aI8477
aI8527
aI8495
aI8471
aI8149
aI8148
aI8435
aI2543
aI8441
aI8419
aI8515
aI8433
aI8422
aI8150
aI8129
asI8476
(lp3
(lp4
I8478
aF0.5
aasI8421
(lp5
(lp6
I8478
aF0.5
aasI8478
(lp7
(lp8
I8479
aF1
aasI8479
(lp9
(lp10
I8479
aF1
aa(lp11
I8478
aF1
aa(lp12
I8478
aF0.5
aas.