(dp1
I8480
(lp2
(lp3
I8482
aF1
aa(lp4
I8481
aF1
aa(lp5
I8483
aF0.80000000000000004
aasI8481
(lp6
(lp7
I8482
aF1
aa(lp8
I8480
aF0.59999999999999998
aa(lp9
I8483
aF0.80000000000000004
aasI8482
(lp10
(lp11
I8482
aF1
aa(lp12
I8481
aF1
aa(lp13
I8480
aF1
aa(lp14
I8483
aF1
aa(lp15
I8481
aF1
aa(lp16
I8480
aF0.59999999999999998
aa(lp17
I8483
aF0.80000000000000004
aasI8483
(lp18
(lp19
I8482
aF1
aa(lp20
I8481
aF1
aasI4802
(lp21
(lp22
I8480
aF0.59999999999999998
aasI-1
(lp23
I3987
aI4799
aI3736
aI10194
aI4805
aI4846
aI5641
aI4791
aI4793
aI5015
aI4807
aI679
aI4845
aI4942
aI3984
aI4816
aI4792
aI678
aI4795
aI4861
aI4844
as.