(dp1
I8484
(lp2
(lp3
I8484
aF1
aa(lp4
I8485
aF1
aa(lp5
I8487
aF1
aa(lp6
I8490
aF1
aa(lp7
I8488
aF1
aa(lp8
I8486
aF1
aa(lp9
I8485
aF0.66666666666666663
aa(lp10
I8487
aF0.42857142857142855
aa(lp11
I8490
aF0.375
aa(lp12
I8488
aF0.5
aasI8485
(lp13
(lp14
I8484
aF1
aa(lp15
I8487
aF0.42857142857142855
aasI8486
(lp16
(lp17
I8484
aF1
aasI8487
(lp18
(lp19
I8484
aF1
aa(lp20
I8485
aF0.66666666666666663
aasI8488
(lp21
(lp22
I8484
aF1
aa(lp23
I8490
aF0.375
aasI8489
(lp24
(lp25
I8490
aF0.375
aa(lp26
I8488
aF0.5
aasI8490
(lp27
(lp28
I8484
aF1
aa(lp29
I8485
aF0.66666666666666663
aa(lp30
I8488
aF0.5
aasI-1
(lp31
I8549
aI8503
aI8518
aI8550
aI8511
aI8153
aI8542
aI8145
aI8441
aI8144
aI8502
aI8158
aI8551
aI8146
aI8500
aI8526
aI8149
asI8543
(lp32
(lp33
I8487
aF0.42857142857142855
aas.