(dp1
I8504
(lp2
(lp3
I8504
aF1
aa(lp4
I8505
aF1
aa(lp5
I8505
aF0.5
aasI8505
(lp6
(lp7
I8504
aF1
aasI-1
(lp8
I8428
aI8460
aI8420
aI1906
aI8427
aI8422
aI8531
aI8534
aI1907
aI8518
aI8507
aI8478
aI8530
aI8578
aI1904
aI8515
aI8138
aI8414
aI8551
aI1908
aI653
aI8532
aI8516
asI8529
(lp9
(lp10
I8505
aF0.5
aasI8535
(lp11
(lp12
I8505
aF0.5
aas.