(dp1
I8504
(lp2
(lp3
I8505
aF1
aasI8505
(lp4
(lp5
I8505
aF1
aa(lp6
I8504
aF1
aa(lp7
I8504
aF0.5
aasI8428
(lp8
(lp9
I8504
aF0.5
aasI-1
(lp10
I8535
aI8529
aI8530
aI8532
aI8508
aI8461
aI8427
aI8525
aI8145
aI8536
aI8515
aI8124
aI4103
aI8184
aI8420
aI8430
aI8434
aI8531
aI3083
aI8581
aI8528
aI8458
aI8421
asI8460
(lp11
(lp12
I8504
aF0.5
aas.