(dp1
I8512
(lp2
(lp3
I8512
aF1
aa(lp4
I8514
aF1
aa(lp5
I8148
aF1
aa(lp6
I8513
aF1
aa(lp7
I8499
aF1
aa(lp8
I8514
aF0.80000000000000004
aa(lp9
I8513
aF0.5
aasI8513
(lp10
(lp11
I8512
aF1
aa(lp12
I8514
aF0.80000000000000004
aasI8514
(lp13
(lp14
I8512
aF1
aa(lp15
I8513
aF0.5
aasI8515
(lp16
(lp17
I8513
aF0.5
aasI8499
(lp18
(lp19
I8512
aF1
aasI8148
(lp20
(lp21
I8512
aF1
aa(lp22
I8514
aF0.80000000000000004
aasI-1
(lp23
I8150
aI8146
aI8149
aI8498
aI8497
aI8496
aI8144
aI8528
aI8500
aI8440
aI8501
aI8423
aI8502
aI8535
aI8421
aI8156
aI8143
aI8550
aI8403
as.