(dp1
I8512
(lp2
(lp3
I8513
aF0.75
aa(lp4
I8515
aF1
aasI8513
(lp5
(lp6
I8514
aF1
aa(lp7
I8515
aF1
aasI8514
(lp8
(lp9
I8514
aF1
aa(lp10
I8513
aF1
aa(lp11
I8515
aF1
aa(lp12
I8513
aF0.75
aa(lp13
I8515
aF1
aasI8515
(lp14
(lp15
I8514
aF1
aa(lp16
I8513
aF0.75
aasI-1
(lp17
I8144
aI8449
aI8535
aI8528
aI8533
aI8529
aI8464
aI8145
aI8146
aI8124
aI8421
aI8448
aI8433
aI8532
aI8530
aI8434
aI8520
aI8431
aI8132
aI8432
aI3077
as.