(dp1
I8498
(lp2
(lp3
I8535
aF0.59999999999999998
aasI8529
(lp4
(lp5
I8529
aF1
aa(lp6
I8530
aF1
aa(lp7
I8535
aF1
aa(lp8
I8530
aF0.75
aa(lp9
I8535
aF0.59999999999999998
aasI8530
(lp10
(lp11
I8529
aF1
aasI8532
(lp12
(lp13
I8530
aF0.75
aa(lp14
I8535
aF0.59999999999999998
aasI8535
(lp15
(lp16
I8529
aF1
aa(lp17
I8530
aF0.75
aasI-1
(lp18
I8528
aI8499
aI8550
aI8548
aI8497
aI8146
aI8508
aI8506
aI8144
aI8510
aI8509
aI8405
aI8501
aI8502
aI8143
aI8500
aI8549
aI8407
aI8511
aI8150
as.