(dp1
I8578
(lp2
(lp3
I8563
aF1
aasI8171
(lp4
(lp5
I8591
aF0.42857142857142855
aasI8591
(lp6
(lp7
I8563
aF1
aasI8560
(lp8
(lp9
I8563
aF1
aa(lp10
I8561
aF0.66666666666666663
aa(lp11
I8562
aF0.66666666666666663
aa(lp12
I8591
aF0.42857142857142855
aasI8561
(lp13
(lp14
I8563
aF1
aa(lp15
I8560
aF0.66666666666666663
aa(lp16
I8562
aF0.66666666666666663
aasI8562
(lp17
(lp18
I8563
aF1
aa(lp19
I8560
aF0.66666666666666663
aa(lp20
I8561
aF0.66666666666666663
aasI8563
(lp21
(lp22
I8563
aF1
aa(lp23
I8560
aF1
aa(lp24
I8561
aF1
aa(lp25
I8562
aF1
aa(lp26
I8591
aF1
aa(lp27
I8578
aF1
aa(lp28
I8560
aF0.66666666666666663
aa(lp29
I8561
aF0.66666666666666663
aa(lp30
I8562
aF0.66666666666666663
aa(lp31
I8591
aF0.42857142857142855
aasI-1
(lp32
I8576
aI8577
aI8179
aI8579
aI8589
aI8588
aI8176
aI8172
aI8174
aI8183
aI8580
aI8170
aI8590
aI8575
aI8182
aI8169
aI8581
aI8168
as.