(dp1
I-1
(lp2
I8566
aI8525
aI8432
aI8575
aI8524
aI8162
aI8152
aI8175
aI8527
aI8154
aI8523
aI8156
aI8421
aI8423
aI8496
aI8163
aI8160
aI8434
aI8516
asI8564
(lp3
(lp4
I8573
aF1
aa(lp5
I8567
aF0.66666666666666663
aasI8565
(lp6
(lp7
I8574
aF0.5
aa(lp8
I8572
aF0.66666666666666663
aa(lp9
I8564
aF0.66666666666666663
aa(lp10
I8567
aF0.66666666666666663
aasI8567
(lp11
(lp12
I8573
aF1
aa(lp13
I8564
aF0.66666666666666663
aasI8572
(lp14
(lp15
I8573
aF1
aa(lp16
I8574
aF0.5
aasI8573
(lp17
(lp18
I8573
aF1
aa(lp19
I8574
aF1
aa(lp20
I8572
aF1
aa(lp21
I8564
aF1
aa(lp22
I8567
aF1
aa(lp23
I8574
aF0.5
aa(lp24
I8572
aF0.66666666666666663
aa(lp25
I8564
aF0.66666666666666663
aa(lp26
I8567
aF0.66666666666666663
aasI8574
(lp27
(lp28
I8573
aF1
aa(lp29
I8572
aF0.66666666666666663
aas.