(dp1
I8577
(lp2
(lp3
I8579
aF1
aa(lp4
I8578
aF0.59999999999999998
aasI8578
(lp5
(lp6
I8579
aF1
aa(lp7
I8577
aF0.75
aasI8579
(lp8
(lp9
I8579
aF1
aa(lp10
I8577
aF1
aa(lp11
I8578
aF1
aa(lp12
I8577
aF0.75
aa(lp13
I8578
aF0.59999999999999998
aasI8580
(lp14
(lp15
I8577
aF0.75
aasI8563
(lp16
(lp17
I8578
aF0.59999999999999998
aasI-1
(lp18
I8576
aI8171
aI8561
aI8581
aI8560
aI8179
aI8583
aI8170
aI8591
aI8562
aI8589
aI8176
aI8169
aI8588
aI8168
aI8183
aI8172
aI8174
aI8570
aI8182
as.