(dp1
I8584
(lp2
(lp3
I8584
aF1
aa(lp4
I8585
aF1
aa(lp5
I8586
aF1
aa(lp6
I8587
aF1
aa(lp7
I8400
aF1
aa(lp8
I8585
aF0.80000000000000004
aa(lp9
I8586
aF0.80000000000000004
aa(lp10
I8587
aF0.80000000000000004
aasI8585
(lp11
(lp12
I8584
aF1
aa(lp13
I8586
aF0.80000000000000004
aa(lp14
I8587
aF0.80000000000000004
aasI8586
(lp15
(lp16
I8584
aF1
aa(lp17
I8585
aF0.80000000000000004
aa(lp18
I8587
aF0.80000000000000004
aasI8587
(lp19
(lp20
I8584
aF1
aa(lp21
I8585
aF0.80000000000000004
aa(lp22
I8586
aF0.80000000000000004
aasI8400
(lp23
(lp24
I8584
aF1
aasI-1
(lp25
I8401
aI8403
aI8399
aI3775
aI8086
aI3258
aI8396
aI3129
aI3187
aI3259
aI3774
aI8085
aI9777
aI6725
aI7892
aI8982
aI8084
aI9779
aI3103
aI3185
as.