(dp1
I8616
(lp2
(lp3
I8621
aF0.59999999999999998
aasI8620
(lp4
(lp5
I8620
aF1
aa(lp6
I8621
aF1
aa(lp7
I8623
aF1
aa(lp8
I8622
aF1
aa(lp9
I8621
aF0.59999999999999998
aa(lp10
I8623
aF0.80000000000000004
aa(lp11
I8622
aF0.80000000000000004
aasI8621
(lp12
(lp13
I8620
aF1
aa(lp14
I8623
aF0.80000000000000004
aa(lp15
I8622
aF0.80000000000000004
aasI8622
(lp16
(lp17
I8620
aF1
aa(lp18
I8623
aF0.80000000000000004
aasI8623
(lp19
(lp20
I8620
aF1
aa(lp21
I8621
aF0.59999999999999998
aa(lp22
I8622
aF0.80000000000000004
aasI-1
(lp23
I8618
aI8617
aI8613
aI8604
aI8606
aI8612
aI8614
aI8609
aI8615
aI8608
aI8619
aI8592
aI8605
aI8607
aI8611
aI8600
aI8785
aI8601
aI8610
aI8669
as.