(dp1
I7312
(lp2
(lp3
I8667
aF0.5
aasI8665
(lp4
(lp5
I8665
aF1
aa(lp6
I8667
aF1
aa(lp7
I8667
aF0.5
aasI8667
(lp8
(lp9
I8665
aF1
aasI-1
(lp10
I4750
aI8278
aI8032
aI8276
aI4770
aI1566
aI4748
aI9123
aI7315
aI1567
aI9749
aI7314
aI9121
aI4769
aI4749
aI9122
aI7313
aI1564
aI9748
aI4935
aI8279
asI7294
(lp11
(lp12
I8667
aF0.5
aas.