(dp1
I8672
(lp2
(lp3
I8672
aF1
aa(lp4
I8674
aF1
aa(lp5
I8673
aF1
aa(lp6
I8674
aF0.75
aa(lp7
I8673
aF1
aasI8673
(lp8
(lp9
I8672
aF1
aa(lp10
I8674
aF0.75
aasI8674
(lp11
(lp12
I8672
aF1
aa(lp13
I8673
aF1
aasI9244
(lp14
(lp15
I8674
aF0.75
aa(lp16
I8673
aF1
aasI-1
(lp17
I9247
aI3737
aI903
aI9246
aI2578
aI6489
aI3736
aI7807
aI792
aI795
aI8292
aI9338
aI2572
aI3738
aI6488
aI824
aI3739
aI9650
aI8903
aI2627
aI804
as.