(dp1
I8712
(lp2
(lp3
I8712
aF1
aa(lp4
I8715
aF1
aa(lp5
I8714
aF1
aa(lp6
I8713
aF1
aa(lp7
I6905
aF1
aa(lp8
I8715
aF0.80000000000000004
aa(lp9
I8714
aF0.80000000000000004
aa(lp10
I8713
aF0.80000000000000004
aasI8713
(lp11
(lp12
I8712
aF1
aa(lp13
I8715
aF0.80000000000000004
aa(lp14
I8714
aF0.80000000000000004
aasI8714
(lp15
(lp16
I8712
aF1
aa(lp17
I8715
aF0.80000000000000004
aa(lp18
I8713
aF0.80000000000000004
aasI8715
(lp19
(lp20
I8712
aF1
aa(lp21
I8714
aF0.80000000000000004
aa(lp22
I8713
aF0.80000000000000004
aasI6905
(lp23
(lp24
I8712
aF1
aasI-1
(lp25
I8642
aI8640
aI6904
aI8641
aI6906
aI573
aI8682
aI575
aI2036
aI572
aI311
aI8643
aI8696
aI536
aI8683
aI4567
aI8698
aI8697
aI2039
aI574
as.