(dp1
I8744
(lp2
(lp3
I8745
aF1
aa(lp4
I8746
aF1
aasI8745
(lp5
(lp6
I8745
aF1
aa(lp7
I8746
aF1
aa(lp8
I8744
aF1
aa(lp9
I8747
aF1
aa(lp10
I8746
aF1
aa(lp11
I8744
aF0.59999999999999998
aa(lp12
I8747
aF0.5
aasI8746
(lp13
(lp14
I8745
aF1
aa(lp15
I8744
aF0.59999999999999998
aa(lp16
I8747
aF0.5
aasI8747
(lp17
(lp18
I8745
aF1
aa(lp19
I8746
aF1
aasI793
(lp20
(lp21
I8747
aF0.5
aasI9917
(lp22
(lp23
I8744
aF0.59999999999999998
aasI-1
(lp24
I9918
aI9919
aI9881
aI9916
aI9900
aI9962
aI9961
aI9847
aI9963
aI9902
aI9844
aI9845
aI9884
aI9864
aI9950
aI9791
aI9846
aI9885
aI9886
aI9945
as.