(dp1
I8744
(lp2
(lp3
I8746
aF1
aa(lp4
I8745
aF1
aasI8745
(lp5
(lp6
I8746
aF1
aa(lp7
I8747
aF0.59999999999999998
aa(lp8
I8744
aF0.5
aasI8746
(lp9
(lp10
I8746
aF1
aa(lp11
I8745
aF1
aa(lp12
I8747
aF1
aa(lp13
I8744
aF1
aa(lp14
I8745
aF1
aa(lp15
I8747
aF0.59999999999999998
aa(lp16
I8744
aF0.5
aasI8747
(lp17
(lp18
I8746
aF1
aa(lp19
I8745
aF1
aasI793
(lp20
(lp21
I8747
aF0.59999999999999998
aasI9917
(lp22
(lp23
I8744
aF0.5
aasI-1
(lp24
I3873
aI9785
aI9918
aI2563
aI2562
aI9881
aI9358
aI2624
aI9356
aI744
aI9219
aI9860
aI9216
aI9218
aI747
aI9359
aI2558
aI2627
aI9930
aI9784
as.