(dp1
I8768
(lp2
(lp3
I8768
aF1
aa(lp4
I8770
aF1
aa(lp5
I8769
aF1
aa(lp6
I8770
aF0.75
aa(lp7
I8769
aF1
aasI8769
(lp8
(lp9
I8768
aF1
aa(lp10
I8770
aF0.75
aasI8770
(lp11
(lp12
I8768
aF1
aa(lp13
I8769
aF1
aasI8771
(lp14
(lp15
I8770
aF0.75
aa(lp16
I8769
aF1
aasI-1
(lp17
I7736
aI8626
aI7571
aI7553
aI6567
aI7452
aI7738
aI6152
aI9209
aI3786
aI3913
aI7568
aI3058
aI6154
aI889
aI888
aI7454
aI7552
aI7453
aI7778
aI3032
as.