(dp1
I8742
(lp2
(lp3
I8790
aF0.5
aa(lp4
I8791
aF0.66666666666666663
aasI2185
(lp5
(lp6
I8788
aF1
aasI8788
(lp7
(lp8
I8788
aF1
aa(lp9
I8789
aF1
aa(lp10
I8790
aF1
aa(lp11
I8791
aF1
aa(lp12
I2185
aF1
aa(lp13
I8789
aF0.80000000000000004
aa(lp14
I8790
aF0.5
aa(lp15
I8791
aF0.66666666666666663
aasI8789
(lp16
(lp17
I8788
aF1
aasI8790
(lp18
(lp19
I8788
aF1
aa(lp20
I8789
aF0.80000000000000004
aa(lp21
I8791
aF0.66666666666666663
aasI8791
(lp22
(lp23
I8788
aF1
aa(lp24
I8789
aF0.80000000000000004
aa(lp25
I8790
aF0.5
aasI-1
(lp26
I8786
aI8743
aI2988
aI9344
aI8731
aI3763
aI3762
aI9347
aI7392
aI3617
aI8739
aI936
aI8730
aI487
aI8623
aI8741
aI10187
aI724
aI3761
as.