(dp1
I8792
(lp2
(lp3
I8794
aF0.75
aa(lp4
I8793
aF1
aasI8793
(lp5
(lp6
I8795
aF1
aa(lp7
I8794
aF0.75
aasI8794
(lp8
(lp9
I8795
aF1
aa(lp10
I8793
aF1
aasI8795
(lp11
(lp12
I8795
aF1
aa(lp13
I8794
aF1
aa(lp14
I8793
aF1
aa(lp15
I8794
aF0.75
aa(lp16
I8793
aF1
aasI-1
(lp17
I8799
aI5556
aI8797
aI5190
aI5107
aI5181
aI8798
aI8803
aI5103
aI5320
aI8805
aI5180
aI5539
aI8809
aI5018
aI5182
aI5321
aI5093
aI5019
aI5323
aI8810
as.