(dp1
I8806
(lp2
(lp3
I8811
aF1
aa(lp4
I8810
aF0.59999999999999998
aa(lp5
I8807
aF0.42857142857142855
aasI8807
(lp6
(lp7
I8811
aF1
aasI8810
(lp8
(lp9
I8811
aF1
aa(lp10
I8806
aF0.5
aasI8811
(lp11
(lp12
I8811
aF1
aa(lp13
I8810
aF1
aa(lp14
I8806
aF1
aa(lp15
I8807
aF1
aa(lp16
I8810
aF0.59999999999999998
aa(lp17
I8806
aF0.5
aa(lp18
I8807
aF0.42857142857142855
aasI8815
(lp19
(lp20
I8807
aF0.42857142857142855
aasI-1
(lp21
I8809
aI8797
aI8805
aI8796
aI6845
aI3208
aI6278
aI8795
aI5180
aI6485
aI8794
aI8814
aI6846
aI5274
aI5182
aI3219
aI5190
aI5181
asI8798
(lp22
(lp23
I8806
aF0.5
aasI8799
(lp24
(lp25
I8810
aF0.59999999999999998
aas.