(dp1
I8804
(lp2
(lp3
I8816
aF0.40000000000000002
aasI8808
(lp4
(lp5
I8816
aF0.40000000000000002
aa(lp6
I8796
aF0.5
aasI8812
(lp7
(lp8
I8812
aF1
aa(lp9
I8816
aF1
aa(lp10
I8796
aF1
aa(lp11
I8816
aF0.40000000000000002
aa(lp12
I8796
aF0.5
aasI8816
(lp13
(lp14
I8812
aF1
aasI8796
(lp15
(lp16
I8812
aF1
aasI8797
(lp17
(lp18
I8796
aF0.5
aasI-1
(lp19
I8817
aI8813
aI8815
aI8818
aI8814
aI8819
aI8268
aI6361
aI3960
aI1970
aI4241
aI8792
aI4497
aI2479
aI2076
aI4551
aI5691
aI6632
aI6981
aI5790
as.