(dp1
I8824
(lp2
(lp3
I8824
aF1
aa(lp4
I8825
aF1
aa(lp5
I8825
aF0.5
aasI8825
(lp6
(lp7
I8824
aF1
aasI8826
(lp8
(lp9
I8825
aF0.5
aasI8827
(lp10
(lp11
I8825
aF0.5
aasI-1
(lp12
I6619
aI7425
aI6623
aI6595
aI2352
aI6759
aI6592
aI6709
aI6756
aI6712
aI6656
aI6683
aI6714
aI6740
aI3785
aI6684
aI6616
aI5745
aI6620
aI5871
aI2230
aI6584
aI6748
as.