(dp1
I-1
(lp2
I8831
aI3211
aI3193
aI8865
aI5404
aI3234
aI3192
aI6828
aI3258
aI3209
aI3194
aI312
aI5381
aI3210
aI3233
aI3175
aI3599
aI3362
aI5519
asI8851
(lp3
(lp4
I8829
aF0.42857142857142855
aasI8820
(lp5
(lp6
I8830
aF1
aa(lp7
I8829
aF0.42857142857142855
aasI8821
(lp8
(lp9
I8822
aF0.5
aa(lp10
I8823
aF0.66666666666666663
aa(lp11
I8820
aF0.66666666666666663
aasI8822
(lp12
(lp13
I8830
aF1
aa(lp14
I8823
aF0.66666666666666663
aasI8823
(lp15
(lp16
I8830
aF1
aa(lp17
I8822
aF0.5
aa(lp18
I8820
aF0.66666666666666663
aasI8829
(lp19
(lp20
I8830
aF1
aasI8830
(lp21
(lp22
I8830
aF1
aa(lp23
I8822
aF1
aa(lp24
I8823
aF1
aa(lp25
I8820
aF1
aa(lp26
I8829
aF1
aa(lp27
I8822
aF0.5
aa(lp28
I8823
aF0.66666666666666663
aa(lp29
I8820
aF0.66666666666666663
aa(lp30
I8829
aF0.42857142857142855
aas.