(dp1
I8837
(lp2
(lp3
I8838
aF1
aasI8838
(lp4
(lp5
I8838
aF1
aa(lp6
I8839
aF1
aa(lp7
I8837
aF1
aa(lp8
I8839
aF0.40000000000000002
aasI8839
(lp9
(lp10
I8838
aF1
aasI8845
(lp11
(lp12
I8839
aF0.40000000000000002
aasI-1
(lp13
I8861
aI8862
aI8860
aI8848
aI8847
aI8930
aI8866
aI3157
aI8846
aI8923
aI6839
aI8822
aI993
aI8864
aI8853
aI8854
aI3396
aI5518
aI3977
aI3150
aI3287
asI8863
(lp14
(lp15
I8839
aF0.40000000000000002
aas.