(dp1
I8864
(lp2
(lp3
I8864
aF1
aa(lp4
I8867
aF1
aa(lp5
I8866
aF1
aa(lp6
I8867
aF0.75
aa(lp7
I8866
aF1
aasI8865
(lp8
(lp9
I8867
aF0.75
aa(lp10
I8866
aF1
aasI8866
(lp11
(lp12
I8864
aF1
aa(lp13
I8867
aF0.75
aasI8867
(lp14
(lp15
I8864
aF1
aa(lp16
I8866
aF1
aasI-1
(lp17
I8958
aI6492
aI1514
aI6497
aI312
aI6493
aI3254
aI10143
aI533
aI315
aI3198
aI3251
aI3214
aI3213
aI4591
aI3221
aI6905
aI5400
aI1513
aI582
aI4589
as.