(dp1
I8868
(lp2
(lp3
I8869
aF0.59999999999999998
aa(lp4
I8871
aF0.80000000000000004
aasI8869
(lp5
(lp6
I8870
aF1
aa(lp7
I8871
aF0.80000000000000004
aasI8870
(lp8
(lp9
I8870
aF1
aa(lp10
I8869
aF1
aa(lp11
I8871
aF1
aa(lp12
I8846
aF1
aa(lp13
I8869
aF0.59999999999999998
aa(lp14
I8871
aF0.80000000000000004
aasI8871
(lp15
(lp16
I8870
aF1
aa(lp17
I8869
aF0.59999999999999998
aasI8846
(lp18
(lp19
I8870
aF1
aasI-1
(lp20
I8847
aI8845
aI8872
aI8844
aI8850
aI8840
aI8841
aI4596
aI8873
aI8874
aI474
aI1218
aI8861
aI8843
aI8862
aI1281
aI4633
aI4635
aI7525
aI8842
as.