(dp1
I888
(lp2
(lp3
I889
aF0.5
aasI889
(lp4
(lp5
I890
aF1
aasI890
(lp6
(lp7
I890
aF1
aa(lp8
I889
aF1
aa(lp9
I889
aF0.5
aasI-1
(lp10
I828
aI6899
aI8333
aI735
aI6898
aI4867
aI1158
aI6379
aI628
aI831
aI6524
aI8334
aI8726
aI8724
aI4815
aI8332
aI829
aI1242
aI830
aI891
aI7775
aI6896
asI6897
(lp11
(lp12
I889
aF0.5
aas.