(dp1
I8910
(lp2
(lp3
I8927
aF0.5
aasI8911
(lp4
(lp5
I8925
aF0.59999999999999998
aasI-1
(lp6
I8920
aI8913
aI8909
aI8912
aI8931
aI8914
aI8928
aI8923
aI8930
aI8915
aI8929
aI8922
aI8934
aI8921
aI737
aI10180
aI8070
aI8908
aI736
asI8924
(lp7
(lp8
I8926
aF1
aa(lp9
I8925
aF0.59999999999999998
aa(lp10
I8927
aF0.5
aasI8925
(lp11
(lp12
I8926
aF1
aa(lp13
I8924
aF0.80000000000000004
aasI8926
(lp14
(lp15
I8926
aF1
aa(lp16
I8925
aF1
aa(lp17
I8924
aF1
aa(lp18
I8927
aF1
aa(lp19
I8925
aF0.59999999999999998
aa(lp20
I8924
aF0.80000000000000004
aa(lp21
I8927
aF0.5
aasI8927
(lp22
(lp23
I8926
aF1
aa(lp24
I8924
aF0.80000000000000004
aas.