(dp1
I8993
(lp2
(lp3
I8993
aF1
aa(lp4
I8994
aF1
aa(lp5
I8995
aF1
aa(lp6
I8994
aF0.75
aa(lp7
I8995
aF0.59999999999999998
aasI8994
(lp8
(lp9
I8993
aF1
aa(lp10
I8995
aF0.59999999999999998
aasI8995
(lp11
(lp12
I8993
aF1
aa(lp13
I8994
aF0.75
aasI508
(lp14
(lp15
I8995
aF0.59999999999999998
aasI-1
(lp16
I7021
aI4782
aI6987
aI7071
aI9080
aI6690
aI510
aI7174
aI7138
aI10047
aI7050
aI2412
aI965
aI7161
aI513
aI7044
aI1823
aI7629
aI7069
aI1885
aI1707
aI1855
asI511
(lp17
(lp18
I8994
aF0.75
aas.