(dp1
I8
(lp2
(lp3
I10
aF0.5
aasI9
(lp4
(lp5
I9
aF1
aa(lp6
I10
aF1
aa(lp7
I10
aF0.5
aasI10
(lp8
(lp9
I9
aF1
aasI-1
(lp10
I11
aI421
aI7039
aI888
aI2987
aI6968
aI890
aI420
aI2952
aI889
aI2986
aI423
aI4566
aI6969
aI3120
aI6971
aI2990
aI2998
aI896
aI3479
aI234
asI422
(lp11
(lp12
I10
aF0.5
aas.