(dp1
I9024
(lp2
(lp3
I9027
aF0.40000000000000002
aa(lp4
I9025
aF0.80000000000000004
aasI9025
(lp5
(lp6
I9026
aF1
aasI9026
(lp7
(lp8
I9026
aF1
aa(lp9
I9027
aF1
aa(lp10
I9025
aF1
aa(lp11
I9027
aF0.40000000000000002
aa(lp12
I9025
aF0.80000000000000004
aasI9027
(lp13
(lp14
I9026
aF1
aa(lp15
I9025
aF0.80000000000000004
aasI5959
(lp16
(lp17
I9027
aF0.40000000000000002
aasI-1
(lp18
I5957
aI5956
aI5958
aI7924
aI8190
aI8793
aI3831
aI3446
aI9497
aI3670
aI1527
aI7926
aI285
aI3447
aI3880
aI8212
aI7925
aI1772
aI2828
aI8792
as.