(dp1
I5510
(lp2
(lp3
I904
aF0.5
aasI904
(lp4
(lp5
I905
aF1
aa(lp6
I906
aF0.80000000000000004
aasI905
(lp7
(lp8
I905
aF1
aa(lp9
I907
aF1
aa(lp10
I906
aF1
aa(lp11
I904
aF1
aa(lp12
I907
aF0.59999999999999998
aa(lp13
I906
aF0.80000000000000004
aa(lp14
I904
aF0.5
aasI906
(lp15
(lp16
I905
aF1
aa(lp17
I907
aF0.59999999999999998
aa(lp18
I904
aF0.5
aasI907
(lp19
(lp20
I905
aF1
aa(lp21
I906
aF0.80000000000000004
aasI2959
(lp22
(lp23
I907
aF0.59999999999999998
aasI-1
(lp24
I3349
aI6948
aI332
aI2372
aI334
aI964
aI8823
aI3361
aI248
aI3157
aI339
aI3348
aI337
aI6847
aI5404
aI960
aI3362
aI338
aI333
aI3367
aI335
as.