(dp1
I-1
(lp2
I9093
aI3910
aI9094
aI2173
aI2174
aI8602
aI3911
aI4760
aI8603
aI4761
aI4762
aI6288
aI9090
aI3909
aI9089
aI10185
aI6257
aI9438
aI9023
aI2078
aI3760
asI9052
(lp3
(lp4
I9053
aF1
aasI9053
(lp5
(lp6
I9053
aF1
aa(lp7
I9052
aF1
aa(lp8
I9052
aF0.5
aasI9054
(lp9
(lp10
I9052
aF0.5
aasI9055
(lp11
(lp12
I9052
aF0.5
aas.