(dp1
I-1
(lp2
I4217
aI884
aI808
aI61
aI843
aI841
aI896
aI810
aI811
aI842
aI4219
aI887
aI812
aI4773
aI809
aI7400
aI840
aI820
aI1897
aI814
aI4730
asI9068
(lp3
(lp4
I9068
aF1
aa(lp5
I9070
aF1
aa(lp6
I9070
aF0.5
aasI9069
(lp7
(lp8
I9070
aF0.5
aasI9070
(lp9
(lp10
I9068
aF1
aasI9071
(lp11
(lp12
I9070
aF0.5
aas.