(dp1
I9093
(lp2
(lp3
I9093
aF1
aa(lp4
I9094
aF1
aa(lp5
I9095
aF1
aa(lp6
I9094
aF0.75
aa(lp7
I9095
aF0.59999999999999998
aasI9094
(lp8
(lp9
I9093
aF1
aa(lp10
I9095
aF0.59999999999999998
aasI9095
(lp11
(lp12
I9093
aF1
aa(lp13
I9094
aF0.75
aasI10185
(lp14
(lp15
I9094
aF0.75
aasI5339
(lp16
(lp17
I9095
aF0.59999999999999998
aasI-1
(lp18
I10187
aI3911
aI3276
aI3278
aI9052
aI4769
aI9092
aI4770
aI4761
aI7392
aI9090
aI9054
aI3617
aI1999
aI3910
aI6273
aI9091
aI6223
aI7394
aI9053
aI8786
as.