(dp1
I9096
(lp2
(lp3
I9098
aF0.5
aasI9097
(lp4
(lp5
I9097
aF1
aa(lp6
I9098
aF1
aa(lp7
I9098
aF0.5
aasI9098
(lp8
(lp9
I9097
aF1
aasI8872
(lp10
(lp11
I9098
aF0.5
aasI-1
(lp12
I4322
aI3156
aI8861
aI9169
aI4323
aI3287
aI8843
aI8939
aI3399
aI3310
aI3142
aI8845
aI4320
aI8910
aI8911
aI3158
aI6834
aI9171
aI8821
aI510
aI5154
aI8860
as.