(dp1
I908
(lp2
(lp3
I910
aF1
aa(lp4
I911
aF0.59999999999999998
aa(lp5
I909
aF0.5
aasI3853
(lp6
(lp7
I911
aF0.59999999999999998
aasI910
(lp8
(lp9
I910
aF1
aa(lp10
I911
aF1
aa(lp11
I909
aF1
aa(lp12
I908
aF1
aa(lp13
I911
aF0.59999999999999998
aa(lp14
I909
aF0.5
aa(lp15
I908
aF0.66666666666666663
aasI909
(lp16
(lp17
I910
aF1
aa(lp18
I908
aF0.66666666666666663
aasI911
(lp19
(lp20
I910
aF1
aa(lp21
I908
aF0.66666666666666663
aasI-1
(lp22
I9119
aI9118
aI3937
aI9116
aI3502
aI7503
aI975
aI3938
aI3939
aI9117
aI2980
aI3936
aI972
aI3654
aI2986
aI2987
aI3500
aI4772
aI9064
aI28
asI3103
(lp23
(lp24
I909
aF0.5
aas.