(dp1
I7252
(lp2
(lp3
I9211
aF1
aasI9208
(lp4
(lp5
I9211
aF1
aa(lp6
I9209
aF0.80000000000000004
aa(lp7
I9210
aF0.80000000000000004
aasI9209
(lp8
(lp9
I9211
aF1
aa(lp10
I9208
aF0.80000000000000004
aa(lp11
I9210
aF0.80000000000000004
aasI9210
(lp12
(lp13
I9211
aF1
aa(lp14
I9208
aF0.80000000000000004
aa(lp15
I9209
aF0.80000000000000004
aasI9211
(lp16
(lp17
I9211
aF1
aa(lp18
I9208
aF1
aa(lp19
I9209
aF1
aa(lp20
I9210
aF1
aa(lp21
I7252
aF1
aa(lp22
I9208
aF0.80000000000000004
aa(lp23
I9209
aF0.80000000000000004
aa(lp24
I9210
aF0.80000000000000004
aasI-1
(lp25
I7253
aI7571
aI9203
aI9201
aI7452
aI7568
aI7569
aI7969
aI7254
aI9320
aI9202
aI9258
aI9321
aI7329
aI9263
aI9262
aI7453
aI7454
aI7019
aI9272
as.