(dp1
I9252
(lp2
(lp3
I9252
aF1
aa(lp4
I9253
aF1
aa(lp5
I9255
aF1
aa(lp6
I9254
aF1
aa(lp7
I7356
aF1
aa(lp8
I9253
aF0.80000000000000004
aa(lp9
I9255
aF0.80000000000000004
aa(lp10
I9254
aF0.80000000000000004
aasI9253
(lp11
(lp12
I9252
aF1
aa(lp13
I9255
aF0.80000000000000004
aa(lp14
I9254
aF0.80000000000000004
aasI9254
(lp15
(lp16
I9252
aF1
aa(lp17
I9253
aF0.80000000000000004
aa(lp18
I9255
aF0.80000000000000004
aasI9255
(lp19
(lp20
I9252
aF1
aa(lp21
I9253
aF0.80000000000000004
aa(lp22
I9254
aF0.80000000000000004
aasI7356
(lp23
(lp24
I9252
aF1
aasI-1
(lp25
I9244
aI9333
aI9332
aI9191
aI9336
aI9235
aI9337
aI9234
aI9233
aI9242
aI7338
aI7358
aI9190
aI9350
aI9257
aI9188
aI9232
aI9245
aI9338
aI9349
as.