(dp1
I9348
(lp2
(lp3
I9258
aF1
aasI9350
(lp4
(lp5
I9348
aF0.42857142857142855
aasI9256
(lp6
(lp7
I9258
aF1
aa(lp8
I9257
aF0.59999999999999998
aa(lp9
I9348
aF0.42857142857142855
aasI9257
(lp10
(lp11
I9258
aF1
aa(lp12
I9256
aF0.5
aasI9258
(lp13
(lp14
I9258
aF1
aa(lp15
I9257
aF1
aa(lp16
I9256
aF1
aa(lp17
I9348
aF1
aa(lp18
I9257
aF0.59999999999999998
aa(lp19
I9256
aF0.5
aa(lp20
I9348
aF0.42857142857142855
aasI9259
(lp21
(lp22
I9256
aF0.5
aasI9331
(lp23
(lp24
I9257
aF0.59999999999999998
aasI-1
(lp25
I9236
aI9238
aI9237
aI9309
aI9308
aI9330
aI9224
aI9349
aI7208
aI9225
aI7210
aI7209
aI9301
aI9239
aI9338
aI7211
aI9202
aI9320
as.