(dp1
I9264
(lp2
(lp3
I9265
aF1
aa(lp4
I9267
aF1
aasI9265
(lp5
(lp6
I9265
aF1
aa(lp7
I9264
aF1
aa(lp8
I9267
aF1
aa(lp9
I9264
aF0.75
aa(lp10
I9267
aF1
aasI9266
(lp11
(lp12
I9264
aF0.75
aa(lp13
I9267
aF1
aasI9267
(lp14
(lp15
I9265
aF1
aa(lp16
I9264
aF0.75
aasI-1
(lp17
I4806
aI7355
aI9183
aI9216
aI9340
aI8415
aI9218
aI7346
aI9217
aI4807
aI9343
aI9181
aI9229
aI8414
aI8435
aI7307
aI7352
aI7347
aI7790
aI9219
aI9228
as.