(dp1
I9281
(lp2
(lp3
I9268
aF0.5
aasI9268
(lp4
(lp5
I9271
aF1
aa(lp6
I9269
aF1
aasI9269
(lp7
(lp8
I9271
aF1
aa(lp9
I9270
aF0.59999999999999998
aa(lp10
I9268
aF0.5
aasI9270
(lp11
(lp12
I9271
aF1
aa(lp13
I9269
aF1
aasI9271
(lp14
(lp15
I9271
aF1
aa(lp16
I9269
aF1
aa(lp17
I9270
aF1
aa(lp18
I9268
aF1
aa(lp19
I9269
aF1
aa(lp20
I9270
aF0.59999999999999998
aa(lp21
I9268
aF0.5
aasI9245
(lp22
(lp23
I9270
aF0.59999999999999998
aasI-1
(lp24
I7242
aI9280
aI7240
aI9244
aI7241
aI9326
aI7243
aI9283
aI9247
aI7303
aI9327
aI7300
aI2541
aI9282
aI9246
aI7364
aI7256
aI9351
aI9325
as.