(dp1
I9272
(lp2
(lp3
I9275
aF1
aa(lp4
I9274
aF1
aasI9273
(lp5
(lp6
I9272
aF0.75
aa(lp7
I9274
aF1
aasI9274
(lp8
(lp9
I9275
aF1
aa(lp10
I9272
aF0.75
aasI9275
(lp11
(lp12
I9275
aF1
aa(lp13
I9272
aF1
aa(lp14
I9274
aF1
aa(lp15
I9272
aF0.75
aa(lp16
I9274
aF1
aasI-1
(lp17
I7330
aI7354
aI7368
aI7306
aI7329
aI7371
aI9254
aI9368
aI9183
aI7307
aI7352
aI7344
aI7346
aI9252
aI9312
aI7353
aI7347
aI7323
aI7331
aI7355
aI9370
as.