(dp1
I730
(lp2
(lp3
I935
aF0.5
aasI932
(lp4
(lp5
I932
aF1
aa(lp6
I935
aF1
aa(lp7
I935
aF0.5
aasI-1
(lp8
I511
aI6530
aI960
aI965
aI510
aI509
aI8897
aI8193
aI974
aI1253
aI8195
aI6528
aI933
aI432
aI1347
aI4605
aI3701
aI3931
aI1086
aI8899
aI423
aI4604
asI3910
(lp9
(lp10
I935
aF0.5
aasI935
(lp11
(lp12
I932
aF1
aas.