(dp1
I9348
(lp2
(lp3
I9350
aF0.5
aasI9349
(lp4
(lp5
I9330
aF1
aa(lp6
I9350
aF0.5
aasI9350
(lp7
(lp8
I9330
aF1
aa(lp9
I9331
aF0.59999999999999998
aa(lp10
I9349
aF0.42857142857142855
aasI9351
(lp11
(lp12
I9349
aF0.42857142857142855
aasI9257
(lp13
(lp14
I9331
aF0.59999999999999998
aasI9330
(lp15
(lp16
I9330
aF1
aa(lp17
I9331
aF1
aa(lp18
I9350
aF1
aa(lp19
I9349
aF1
aa(lp20
I9331
aF0.59999999999999998
aa(lp21
I9350
aF0.5
aa(lp22
I9349
aF0.42857142857142855
aasI9331
(lp23
(lp24
I9330
aF1
aasI-1
(lp25
I9328
aI9329
aI9347
aI9256
aI9358
aI9314
aI9258
aI7209
aI9346
aI9238
aI7347
aI7346
aI9237
aI9337
aI7344
aI9359
aI7208
aI7355
as.