(dp1
I9376
(lp2
(lp3
I9378
aF1
aa(lp4
I9377
aF1
aasI9377
(lp5
(lp6
I9378
aF1
aa(lp7
I9376
aF0.75
aasI9378
(lp8
(lp9
I9378
aF1
aa(lp10
I9376
aF1
aa(lp11
I9377
aF1
aa(lp12
I9376
aF0.75
aa(lp13
I9377
aF1
aasI9379
(lp14
(lp15
I9376
aF0.75
aa(lp16
I9377
aF1
aasI-1
(lp17
I115
aI3863
aI3667
aI7725
aI3404
aI3860
aI7727
aI7726
aI3666
aI793
aI7724
aI212
aI2625
aI498
aI3862
aI3400
aI2717
aI3446
aI3861
aI3664
aI8614
as.