(dp1
I929
(lp2
(lp3
I940
aF1
aa(lp4
I941
aF0.80000000000000004
aasI940
(lp5
(lp6
I940
aF1
aa(lp7
I941
aF1
aa(lp8
I942
aF1
aa(lp9
I943
aF1
aa(lp10
I929
aF1
aa(lp11
I941
aF0.80000000000000004
aa(lp12
I942
aF0.80000000000000004
aa(lp13
I943
aF0.5
aasI941
(lp14
(lp15
I940
aF1
aa(lp16
I942
aF0.80000000000000004
aasI942
(lp17
(lp18
I940
aF1
aa(lp19
I941
aF0.80000000000000004
aa(lp20
I943
aF0.5
aasI943
(lp21
(lp22
I940
aF1
aa(lp23
I942
aF0.80000000000000004
aasI6775
(lp24
(lp25
I943
aF0.5
aasI-1
(lp26
I230
aI83
aI351
aI4038
aI220
aI3915
aI229
aI336
aI226
aI224
aI221
aI462
aI344
aI347
aI349
aI225
aI223
aI156
aI935
as.