(dp1
I9408
(lp2
(lp3
I9410
aF1
aa(lp4
I9409
aF0.66666666666666663
aa(lp5
I9411
aF0.66666666666666663
aasI9409
(lp6
(lp7
I9410
aF1
aa(lp8
I9411
aF0.66666666666666663
aa(lp9
I9408
aF0.66666666666666663
aa(lp10
I9495
aF0.42857142857142855
aasI9410
(lp11
(lp12
I9410
aF1
aa(lp13
I9409
aF1
aa(lp14
I9411
aF1
aa(lp15
I9408
aF1
aa(lp16
I9495
aF1
aa(lp17
I9493
aF1
aa(lp18
I9409
aF0.66666666666666663
aa(lp19
I9411
aF0.66666666666666663
aa(lp20
I9408
aF0.66666666666666663
aa(lp21
I9495
aF0.42857142857142855
aasI9411
(lp22
(lp23
I9410
aF1
aa(lp24
I9409
aF0.66666666666666663
aa(lp25
I9408
aF0.66666666666666663
aasI9493
(lp26
(lp27
I9410
aF1
aasI7680
(lp28
(lp29
I9495
aF0.42857142857142855
aasI9495
(lp30
(lp31
I9410
aF1
aasI-1
(lp32
I9415
aI9492
aI9414
aI9413
aI9494
aI9538
aI9412
aI9958
aI9544
aI9959
aI3028
aI7687
aI9794
aI8127
aI1896
aI7682
aI3494
aI4293
as.