(dp1
I-1
(lp2
I6775
aI929
aI336
aI156
aI310
aI6777
aI6772
aI3999
aI94
aI309
aI6159
aI489
aI351
aI344
aI271
aI575
aI3926
aI537
aI3348
aI347
aI345
asI940
(lp3
(lp4
I943
aF1
aa(lp5
I942
aF1
aasI941
(lp6
(lp7
I940
aF0.75
aa(lp8
I942
aF1
aasI942
(lp9
(lp10
I943
aF1
aa(lp11
I940
aF0.75
aasI943
(lp12
(lp13
I943
aF1
aa(lp14
I940
aF1
aa(lp15
I942
aF1
aa(lp16
I940
aF0.75
aa(lp17
I942
aF1
aas.