(dp1
I9448
(lp2
(lp3
I9435
aF0.42857142857142855
aasI9417
(lp4
(lp5
I9434
aF0.5
aasI9432
(lp6
(lp7
I9432
aF1
aa(lp8
I9433
aF1
aa(lp9
I9434
aF1
aa(lp10
I9404
aF1
aa(lp11
I9435
aF1
aa(lp12
I9433
aF0.80000000000000004
aa(lp13
I9434
aF0.5
aa(lp14
I9404
aF0.66666666666666663
aa(lp15
I9435
aF0.42857142857142855
aasI9433
(lp16
(lp17
I9432
aF1
aa(lp18
I9434
aF0.5
aa(lp19
I9404
aF0.66666666666666663
aa(lp20
I9435
aF0.42857142857142855
aasI9434
(lp21
(lp22
I9432
aF1
aa(lp23
I9433
aF0.80000000000000004
aa(lp24
I9404
aF0.66666666666666663
aasI9435
(lp25
(lp26
I9432
aF1
aasI9404
(lp27
(lp28
I9432
aF1
aa(lp29
I9433
aF0.80000000000000004
aasI-1
(lp30
I9416
aI9419
aI9440
aI355
aI9418
aI9451
aI334
aI1980
aI1938
aI9442
aI1936
aI348
aI504
aI333
aI354
aI2296
aI505
aI1983
aI3996
as.