(dp1
I9447
(lp2
(lp3
I9436
aF0.59999999999999998
aasI9438
(lp4
(lp5
I9439
aF1
aasI9436
(lp6
(lp7
I9439
aF1
aa(lp8
I9438
aF0.75
aasI9437
(lp9
(lp10
I9438
aF0.75
aa(lp11
I9436
aF0.59999999999999998
aasI-1
(lp12
I9446
aI9435
aI1936
aI1938
aI9449
aI9450
aI450
aI9448
aI9442
aI3949
aI9777
aI9440
aI7742
aI9445
aI9405
aI6784
aI6295
aI1939
aI3948
aI9949
asI9439
(lp13
(lp14
I9439
aF1
aa(lp15
I9438
aF1
aa(lp16
I9436
aF1
aa(lp17
I9438
aF0.75
aa(lp18
I9436
aF0.59999999999999998
aas.