(dp1
I-1
(lp2
I9479
aI9447
aI9436
aI9421
aI9422
aI9395
aI9439
aI9438
aI9398
aI9396
aI3873
aI9456
aI448
aI9813
aI9477
aI449
aI744
aI451
aI2677
aI9273
aI9847
asI9444
(lp3
(lp4
I9445
aF0.5
aasI9445
(lp5
(lp6
I9446
aF1
aasI9446
(lp7
(lp8
I9446
aF1
aa(lp9
I9445
aF1
aa(lp10
I9445
aF0.5
aasI9437
(lp11
(lp12
I9445
aF0.5
aas.