(dp1
I9447
(lp2
(lp3
I9450
aF0.59999999999999998
aasI9448
(lp4
(lp5
I9448
aF1
aa(lp6
I9449
aF1
aa(lp7
I9450
aF1
aa(lp8
I9435
aF1
aa(lp9
I9449
aF1
aa(lp10
I9450
aF0.59999999999999998
aasI9449
(lp11
(lp12
I9448
aF1
aa(lp13
I9450
aF0.59999999999999998
aasI9450
(lp14
(lp15
I9448
aF1
aa(lp16
I9449
aF1
aasI9435
(lp17
(lp18
I9448
aF1
aa(lp19
I9449
aF1
aasI-1
(lp20
I9440
aI9451
aI1936
aI9867
aI1938
aI9865
aI9866
aI9932
aI9442
aI9933
aI9864
aI9405
aI6784
aI513
aI9432
aI1937
aI9944
aI512
aI9438
aI9934
aI9439
as.