(dp1
I9409
(lp2
(lp3
I9494
aF0.59999999999999998
aasI9410
(lp4
(lp5
I9493
aF0.75
aasI9492
(lp6
(lp7
I9492
aF1
aa(lp8
I9493
aF1
aa(lp9
I9494
aF1
aa(lp10
I9493
aF0.75
aa(lp11
I9494
aF0.59999999999999998
aasI9493
(lp12
(lp13
I9492
aF1
aa(lp14
I9494
aF0.59999999999999998
aasI9494
(lp15
(lp16
I9492
aF1
aa(lp17
I9493
aF0.75
aasI-1
(lp18
I9414
aI9413
aI9495
aI9415
aI9412
aI9408
aI9551
aI9538
aI9411
aI9544
aI9548
aI9539
aI9536
aI8127
aI9516
aI9542
aI9567
aI3613
aI3022
aI9560
as.