(dp1
I9409
(lp2
(lp3
I9492
aF0.59999999999999998
aasI9410
(lp4
(lp5
I9493
aF0.75
aasI9492
(lp6
(lp7
I9494
aF1
aa(lp8
I9493
aF0.75
aasI9493
(lp9
(lp10
I9494
aF1
aa(lp11
I9492
aF0.59999999999999998
aasI9494
(lp12
(lp13
I9494
aF1
aa(lp14
I9493
aF1
aa(lp15
I9492
aF1
aa(lp16
I9493
aF0.75
aa(lp17
I9492
aF0.59999999999999998
aasI-1
(lp18
I9495
aI9408
aI9413
aI9415
aI9412
aI9548
aI9414
aI9411
aI9551
aI9536
aI9538
aI8127
aI9544
aI2540
aI9541
aI9560
aI3022
aI9568
aI9546
aI9539
as.