(dp1
I2688
(lp2
(lp3
I949
aF0.59999999999999998
aasI1129
(lp4
(lp5
I951
aF0.5
aasI948
(lp6
(lp7
I950
aF1
aa(lp8
I949
aF0.59999999999999998
aa(lp9
I951
aF0.5
aasI949
(lp10
(lp11
I950
aF1
aa(lp12
I948
aF1
aasI950
(lp13
(lp14
I950
aF1
aa(lp15
I948
aF1
aa(lp16
I949
aF1
aa(lp17
I951
aF1
aa(lp18
I948
aF1
aa(lp19
I949
aF0.59999999999999998
aa(lp20
I951
aF0.5
aasI951
(lp21
(lp22
I950
aF1
aa(lp23
I948
aF1
aasI-1
(lp24
I1122
aI2556
aI2574
aI2618
aI1097
aI2568
aI2612
aI2858
aI2561
aI1106
aI2619
aI2577
aI1121
aI2621
aI1123
aI2620
aI732
aI2680
aI2639
aI1279
aI7214
as.