(dp1
I9504
(lp2
(lp3
I9505
aF1
aa(lp4
I9506
aF0.80000000000000004
aa(lp5
I9507
aF0.80000000000000004
aasI9505
(lp6
(lp7
I9505
aF1
aa(lp8
I9506
aF1
aa(lp9
I9504
aF1
aa(lp10
I9507
aF1
aa(lp11
I9517
aF1
aa(lp12
I9506
aF0.80000000000000004
aa(lp13
I9504
aF0.80000000000000004
aa(lp14
I9507
aF0.80000000000000004
aasI9506
(lp15
(lp16
I9505
aF1
aa(lp17
I9504
aF0.80000000000000004
aa(lp18
I9507
aF0.80000000000000004
aasI9507
(lp19
(lp20
I9505
aF1
aa(lp21
I9506
aF0.80000000000000004
aa(lp22
I9504
aF0.80000000000000004
aasI9517
(lp23
(lp24
I9505
aF1
aasI-1
(lp25
I9516
aI9545
aI9518
aI2851
aI2789
aI7561
aI7560
aI9544
aI3076
aI3077
aI9519
aI2930
aI3104
aI9565
aI1335
aI9564
aI2908
aI3078
aI3067
aI3726
as.