(dp1
I-1
(lp2
I4672
aI1594
aI4783
aI1345
aI8194
aI2249
aI4299
aI774
aI4596
aI9153
aI8688
aI772
aI1602
aI1596
aI4757
aI1084
aI2916
aI8883
aI723
aI2815
aI773
asI9508
(lp3
(lp4
I9509
aF1
aa(lp5
I9510
aF1
aasI9509
(lp6
(lp7
I9509
aF1
aa(lp8
I9508
aF1
aa(lp9
I9510
aF1
aa(lp10
I9508
aF0.75
aa(lp11
I9510
aF1
aasI9510
(lp12
(lp13
I9509
aF1
aa(lp14
I9508
aF0.75
aasI9511
(lp15
(lp16
I9508
aF0.75
aa(lp17
I9510
aF1
aas.