(dp1
I9505
(lp2
(lp3
I9517
aF0.59999999999999998
aasI9516
(lp4
(lp5
I9516
aF1
aa(lp6
I9517
aF1
aa(lp7
I9518
aF1
aa(lp8
I9519
aF1
aa(lp9
I9517
aF0.59999999999999998
aa(lp10
I9518
aF0.80000000000000004
aa(lp11
I9519
aF0.80000000000000004
aasI9517
(lp12
(lp13
I9516
aF1
aa(lp14
I9518
aF0.80000000000000004
aa(lp15
I9519
aF0.80000000000000004
aasI9518
(lp16
(lp17
I9516
aF1
aa(lp18
I9517
aF0.59999999999999998
aa(lp19
I9519
aF0.80000000000000004
aasI9519
(lp20
(lp21
I9516
aF1
aa(lp22
I9518
aF0.80000000000000004
aasI-1
(lp23
I9506
aI9545
aI9504
aI2851
aI7561
aI3104
aI9507
aI3077
aI3107
aI7562
aI2789
aI9564
aI3105
aI9565
aI1370
aI3726
aI1335
aI3106
aI2827
aI7560
as.