(dp1
I9537
(lp2
(lp3
I9545
aF1
aa(lp4
I9544
aF0.59999999999999998
aa(lp5
I9547
aF0.80000000000000004
aasI9544
(lp6
(lp7
I9545
aF1
aa(lp8
I9537
aF0.80000000000000004
aa(lp9
I9547
aF0.80000000000000004
aasI9545
(lp10
(lp11
I9545
aF1
aa(lp12
I9544
aF1
aa(lp13
I9537
aF1
aa(lp14
I9547
aF1
aa(lp15
I9544
aF0.59999999999999998
aa(lp16
I9537
aF0.80000000000000004
aa(lp17
I9547
aF0.80000000000000004
aasI9546
(lp18
(lp19
I9544
aF0.59999999999999998
aa(lp20
I9537
aF0.80000000000000004
aasI9547
(lp21
(lp22
I9545
aF1
aasI-1
(lp23
I9505
aI9564
aI9507
aI9565
aI9517
aI3076
aI9516
aI3078
aI9567
aI3079
aI9518
aI3112
aI9536
aI3067
aI9504
aI3080
aI9566
aI3115
aI9538
aI2844
as.