(dp1
I9540
(lp2
(lp3
I9542
aF0.42857142857142855
aasI9542
(lp4
(lp5
I9548
aF1
aasI9543
(lp6
(lp7
I9549
aF0.5
aa(lp8
I9542
aF0.42857142857142855
aasI9548
(lp9
(lp10
I9548
aF1
aa(lp11
I9549
aF1
aa(lp12
I9550
aF1
aa(lp13
I9542
aF1
aa(lp14
I9551
aF1
aa(lp15
I9549
aF0.5
aa(lp16
I9550
aF0.66666666666666663
aa(lp17
I9542
aF0.42857142857142855
aa(lp18
I9551
aF0.5714285714285714
aasI9549
(lp19
(lp20
I9548
aF1
aa(lp21
I9550
aF0.66666666666666663
aa(lp22
I9551
aF0.5714285714285714
aasI9550
(lp23
(lp24
I9548
aF1
aa(lp25
I9549
aF0.5
aa(lp26
I9551
aF0.5714285714285714
aasI9551
(lp27
(lp28
I9548
aF1
aa(lp29
I9550
aF0.66666666666666663
aasI-1
(lp30
I6912
aI1203
aI6915
aI1076
aI9535
aI1993
aI8732
aI9534
aI9541
aI6910
aI6908
aI6914
aI6909
aI9532
aI6913
aI9305
aI9364
aI2621
as.