(dp1
I9632
(lp2
(lp3
I9633
aF1
aa(lp4
I9635
aF1
aa(lp5
I9634
aF1
aasI9633
(lp6
(lp7
I9633
aF1
aa(lp8
I9632
aF1
aa(lp9
I9635
aF1
aa(lp10
I9634
aF1
aa(lp11
I9632
aF1
aa(lp12
I9635
aF1
aa(lp13
I9634
aF1
aasI9634
(lp14
(lp15
I9633
aF1
aa(lp16
I9632
aF1
aa(lp17
I9635
aF1
aasI9635
(lp18
(lp19
I9633
aF1
aa(lp20
I9632
aF1
aa(lp21
I9634
aF1
aasI-1
(lp22
I9671
aI9667
aI9666
aI9670
aI9663
aI9668
aI9640
aI9589
aI9662
aI9721
aI9722
aI9642
aI9687
aI9771
aI9734
aI9732
aI9613
aI9757
aI9627
aI9664
aI9660
as.