(dp1
I964
(lp2
(lp3
I964
aF1
aa(lp4
I966
aF1
aa(lp5
I965
aF1
aa(lp6
I967
aF1
aa(lp7
I966
aF0.59999999999999998
aa(lp8
I965
aF0.80000000000000004
aa(lp9
I967
aF0.5
aasI965
(lp10
(lp11
I964
aF1
aa(lp12
I966
aF0.59999999999999998
aa(lp13
I967
aF0.5
aasI966
(lp14
(lp15
I964
aF1
aa(lp16
I965
aF0.80000000000000004
aasI967
(lp17
(lp18
I964
aF1
aa(lp19
I965
aF0.80000000000000004
aasI970
(lp20
(lp21
I967
aF0.5
aasI6940
(lp22
(lp23
I966
aF0.59999999999999998
aasI-1
(lp24
I324
aI348
aI6842
aI325
aI326
aI6765
aI251
aI6841
aI351
aI6122
aI333
aI250
aI6901
aI7659
aI3507
aI7650
aI354
aI6896
aI292
aI350
as.