(dp1
I9648
(lp2
(lp3
I9649
aF1
aa(lp4
I9651
aF0.75
aasI9649
(lp5
(lp6
I9649
aF1
aa(lp7
I9651
aF1
aa(lp8
I9648
aF1
aa(lp9
I9651
aF0.75
aa(lp10
I9648
aF1
aasI9650
(lp11
(lp12
I9651
aF0.75
aa(lp13
I9648
aF1
aasI9651
(lp14
(lp15
I9649
aF1
aa(lp16
I9648
aF1
aasI-1
(lp17
I8292
aI8294
aI8293
aI8317
aI9645
aI8295
aI8296
aI8316
aI8299
aI8297
aI8247
aI8318
aI8319
aI8281
aI1606
aI9646
aI8240
aI8298
aI1736
aI7924
aI8242
as.