(dp1
I9709
(lp2
(lp3
I9656
aF0.42857142857142855
aa(lp4
I9657
aF0.5714285714285714
aasI9685
(lp5
(lp6
I9659
aF0.33333333333333331
aasI9656
(lp7
(lp8
I9658
aF1
aa(lp9
I9657
aF0.5714285714285714
aasI9657
(lp10
(lp11
I9658
aF1
aa(lp12
I9656
aF0.42857142857142855
aasI9658
(lp13
(lp14
I9658
aF1
aa(lp15
I9659
aF1
aa(lp16
I9656
aF1
aa(lp17
I9657
aF1
aa(lp18
I9659
aF0.33333333333333331
aa(lp19
I9656
aF0.42857142857142855
aa(lp20
I9657
aF0.5714285714285714
aasI9659
(lp21
(lp22
I9658
aF1
aasI-1
(lp23
I9594
aI9600
aI9652
aI9592
aI9684
aI8353
aI9710
aI9703
aI9653
aI9601
aI8347
aI9702
aI8223
aI9585
aI9687
aI9706
aI9705
aI8346
asI9727
(lp24
(lp25
I9659
aF0.33333333333333331
aas.