(dp1
I9664
(lp2
(lp3
I9665
aF1
aa(lp4
I9666
aF0.59999999999999998
aa(lp5
I9720
aF0.80000000000000004
aasI9665
(lp6
(lp7
I9665
aF1
aa(lp8
I9664
aF1
aa(lp9
I9666
aF1
aa(lp10
I9720
aF1
aa(lp11
I9664
aF1
aa(lp12
I9666
aF0.59999999999999998
aa(lp13
I9720
aF0.80000000000000004
aasI9666
(lp14
(lp15
I9665
aF1
aa(lp16
I9664
aF1
aa(lp17
I9720
aF0.80000000000000004
aasI9668
(lp18
(lp19
I9666
aF0.59999999999999998
aasI9720
(lp20
(lp21
I9665
aF1
aa(lp22
I9664
aF1
aasI-1
(lp23
I9616
aI9663
aI9589
aI9669
aI9671
aI9711
aI9721
aI9679
aI9627
aI9667
aI9634
aI9767
aI9626
aI9593
aI9662
aI9617
aI9676
aI9774
aI9723
aI9773
as.