(dp1
I9680
(lp2
(lp3
I9680
aF1
aa(lp4
I9681
aF1
aa(lp5
I9683
aF1
aa(lp6
I9682
aF1
aa(lp7
I9681
aF1
aa(lp8
I9683
aF1
aa(lp9
I9682
aF1
aasI9681
(lp10
(lp11
I9680
aF1
aa(lp12
I9683
aF1
aa(lp13
I9682
aF1
aasI9682
(lp14
(lp15
I9680
aF1
aa(lp16
I9681
aF1
aa(lp17
I9683
aF1
aasI9683
(lp18
(lp19
I9680
aF1
aa(lp20
I9681
aF1
aa(lp21
I9682
aF1
aasI-1
(lp22
I9638
aI9598
aI9596
aI9686
aI9678
aI9597
aI9707
aI6532
aI9599
aI9710
aI9773
aI9587
aI4799
aI4241
aI9581
aI9576
aI1635
aI4244
aI9698
aI9711
aI9719
as.