(dp1
I9704
(lp2
(lp3
I9707
aF1
aasI9705
(lp4
(lp5
I9704
aF0.40000000000000002
aasI9706
(lp6
(lp7
I9704
aF0.40000000000000002
aasI9707
(lp8
(lp9
I9707
aF1
aa(lp10
I9704
aF1
aa(lp11
I9711
aF1
aa(lp12
I9704
aF0.40000000000000002
aasI9711
(lp13
(lp14
I9707
aF1
aasI-1
(lp15
I9677
aI9639
aI9717
aI9598
aI9596
aI9710
aI9638
aI9679
aI9589
aI9718
aI9700
aI9680
aI9715
aI9668
aI9716
aI9676
aI9678
aI9590
aI9587
aI9591
aI9772
aI9581
as.