(dp1
I969
(lp2
(lp3
I970
aF0.5
aasI970
(lp4
(lp5
I971
aF1
aasI971
(lp6
(lp7
I971
aF1
aa(lp8
I970
aF1
aa(lp9
I970
aF0.5
aasI-1
(lp10
I8805
aI2831
aI6788
aI6790
aI5102
aI8764
aI8212
aI9057
aI5303
aI2187
aI5305
aI144
aI8608
aI4763
aI2288
aI1828
aI4629
aI8766
aI8213
aI5103
aI3860
aI3544
asI4630
(lp11
(lp12
I970
aF0.5
aas.