(dp1
I9581
(lp2
(lp3
I9713
aF1
aasI9713
(lp4
(lp5
I9713
aF1
aa(lp6
I9715
aF1
aa(lp7
I9714
aF1
aa(lp8
I9581
aF1
aa(lp9
I9715
aF0.59999999999999998
aa(lp10
I9714
aF0.80000000000000004
aasI9714
(lp11
(lp12
I9713
aF1
aa(lp13
I9715
aF0.59999999999999998
aasI9715
(lp14
(lp15
I9713
aF1
aa(lp16
I9714
aF0.80000000000000004
aasI9629
(lp17
(lp18
I9715
aF0.59999999999999998
aa(lp19
I9714
aF0.80000000000000004
aasI-1
(lp20
I9687
aI9580
aI9586
aI9582
aI9685
aI9692
aI9585
aI9686
aI9684
aI9595
aI9608
aI9643
aI9603
aI9631
aI9593
aI9592
aI9706
aI9594
aI9616
aI9628
as.