(dp1
I9680
(lp2
(lp3
I9719
aF0.42857142857142855
aasI9681
(lp4
(lp5
I9718
aF0.33333333333333331
aasI9682
(lp6
(lp7
I9718
aF0.33333333333333331
aasI9716
(lp8
(lp9
I9717
aF1
aa(lp10
I9719
aF0.42857142857142855
aasI9717
(lp11
(lp12
I9717
aF1
aa(lp13
I9716
aF1
aa(lp14
I9718
aF1
aa(lp15
I9719
aF1
aa(lp16
I9716
aF1
aa(lp17
I9718
aF0.33333333333333331
aa(lp18
I9719
aF0.42857142857142855
aasI9718
(lp19
(lp20
I9717
aF1
aa(lp21
I9716
aF1
aasI9719
(lp22
(lp23
I9717
aF1
aa(lp24
I9716
aF1
aasI-1
(lp25
I9683
aI3984
aI8295
aI8294
aI8316
aI8247
aI8245
aI8292
aI8319
aI3987
aI3985
aI8237
aI1530
aI8318
aI8239
aI6342
aI8317
aI8244
as.