(dp1
I9732
(lp2
(lp3
I9735
aF1
aa(lp4
I9733
aF0.80000000000000004
aasI9733
(lp5
(lp6
I9735
aF1
aa(lp7
I9732
aF0.59999999999999998
aasI9734
(lp8
(lp9
I9732
aF0.59999999999999998
aa(lp10
I9733
aF0.80000000000000004
aasI9735
(lp11
(lp12
I9735
aF1
aa(lp13
I9732
aF1
aa(lp14
I9733
aF1
aa(lp15
I9754
aF1
aa(lp16
I9732
aF0.59999999999999998
aa(lp17
I9733
aF0.80000000000000004
aasI9754
(lp18
(lp19
I9735
aF1
aasI-1
(lp20
I9663
aI9750
aI9634
aI9770
aI9759
aI9767
aI9757
aI9667
aI9671
aI9614
aI9635
aI9722
aI9769
aI9613
aI9766
aI9771
aI9670
aI9665
aI9753
aI9626
as.