(dp1
I9769
(lp2
(lp3
I9748
aF0.40000000000000002
aasI9771
(lp4
(lp5
I9748
aF0.40000000000000002
aasI9748
(lp6
(lp7
I9751
aF1
aasI9749
(lp8
(lp9
I9751
aF1
aasI9751
(lp10
(lp11
I9751
aF1
aa(lp12
I9748
aF1
aa(lp13
I9749
aF1
aa(lp14
I9748
aF0.40000000000000002
aasI-1
(lp15
I9750
aI9752
aI9770
aI9754
aI9620
aI9753
aI9621
aI9735
aI9613
aI9734
aI9622
aI9733
aI9667
aI9732
aI1160
aI9757
aI9663
aI9767
aI9626
aI3155
as.