(dp1
I-1
(lp2
I9588
aI9589
aI9613
aI9759
aI9662
aI9734
aI9055
aI9669
aI9666
aI9756
aI6938
aI9641
aI9671
aI9769
aI9622
aI9614
aI9774
aI6937
aI9664
aI9660
aI9722
asI9764
(lp3
(lp4
I9764
aF1
aa(lp5
I9765
aF1
aa(lp6
I9765
aF0.5
aasI9765
(lp7
(lp8
I9764
aF1
aasI9766
(lp9
(lp10
I9765
aF0.5
aasI9767
(lp11
(lp12
I9765
aF0.5
aas.