(dp1
I976
(lp2
(lp3
I977
aF0.5
aasI977
(lp4
(lp5
I978
aF1
aasI978
(lp6
(lp7
I978
aF1
aa(lp8
I977
aF1
aa(lp9
I977
aF0.5
aasI979
(lp10
(lp11
I977
aF0.5
aasI-1
(lp12
I276
aI8887
aI4050
aI278
aI5155
aI974
aI5152
aI4766
aI4640
aI4912
aI5153
aI4429
aI2078
aI546
aI2030
aI279
aI4355
aI4522
aI3505
aI5336
aI4520
as.