(dp1
I9792
(lp2
(lp3
I9792
aF1
aa(lp4
I9794
aF1
aa(lp5
I9793
aF1
aa(lp6
I9795
aF1
aa(lp7
I9794
aF0.59999999999999998
aa(lp8
I9793
aF0.80000000000000004
aa(lp9
I9795
aF0.5
aasI9793
(lp10
(lp11
I9792
aF1
aa(lp12
I9794
aF0.59999999999999998
aa(lp13
I9795
aF0.5
aasI9794
(lp14
(lp15
I9792
aF1
aa(lp16
I9793
aF0.80000000000000004
aasI9795
(lp17
(lp18
I9792
aF1
aa(lp19
I9793
aF0.80000000000000004
aasI9957
(lp20
(lp21
I9795
aF0.5
aasI9958
(lp22
(lp23
I9794
aF0.59999999999999998
aasI-1
(lp24
I9959
aI9956
aI7691
aI3028
aI2996
aI6961
aI1896
aI2997
aI7752
aI42
aI2383
aI2313
aI6963
aI8205
aI7687
aI41
aI6957
aI2998
aI2999
as.