(dp1
I9824
(lp2
(lp3
I9827
aF1
aa(lp4
I9825
aF0.66666666666666663
aasI9825
(lp5
(lp6
I9827
aF1
aa(lp7
I9824
aF0.42857142857142855
aasI9826
(lp8
(lp9
I9827
aF1
aa(lp10
I9825
aF0.66666666666666663
aasI9827
(lp11
(lp12
I9827
aF1
aa(lp13
I9826
aF1
aa(lp14
I9825
aF1
aa(lp15
I9824
aF1
aa(lp16
I9826
aF0.33333333333333331
aa(lp17
I9825
aF0.66666666666666663
aa(lp18
I9824
aF0.42857142857142855
aasI9837
(lp19
(lp20
I9824
aF0.42857142857142855
aasI10038
(lp21
(lp22
I9826
aF0.33333333333333331
aasI10039
(lp23
(lp24
I9826
aF0.33333333333333331
aasI-1
(lp25
I8019
aI9450
aI9911
aI1561
aI9808
aI1642
aI2091
aI5938
aI9399
aI10037
aI6547
aI2088
aI9992
aI8018
aI9443
aI9810
aI9446
aI9445
aI9514
aI2089
as.