(dp1
I9872
(lp2
(lp3
I9874
aF0.75
aa(lp4
I9873
aF1
aasI9873
(lp5
(lp6
I9875
aF1
aa(lp7
I9874
aF0.75
aasI9874
(lp8
(lp9
I9875
aF1
aa(lp10
I9873
aF1
aasI9875
(lp11
(lp12
I9875
aF1
aa(lp13
I9874
aF1
aa(lp14
I9873
aF1
aa(lp15
I9874
aF0.75
aa(lp16
I9873
aF1
aasI-1
(lp17
I9962
aI9961
aI9900
aI9960
aI9963
aI9902
aI9844
aI9898
aI9847
aI9846
aI9917
aI9803
aI9845
aI9885
aI9947
aI9950
aI9776
aI9800
aI9778
aI9802
aI9946
as.