(dp1
I9900
(lp2
(lp3
I9903
aF1
aa(lp4
I9901
aF0.80000000000000004
aa(lp5
I9902
aF0.80000000000000004
aasI9901
(lp6
(lp7
I9903
aF1
aa(lp8
I9902
aF0.80000000000000004
aa(lp9
I9900
aF0.80000000000000004
aasI9902
(lp10
(lp11
I9903
aF1
aa(lp12
I9901
aF0.80000000000000004
aa(lp13
I9900
aF0.80000000000000004
aasI9903
(lp14
(lp15
I9903
aF1
aa(lp16
I9901
aF1
aa(lp17
I9902
aF1
aa(lp18
I9900
aF1
aa(lp19
I9883
aF1
aa(lp20
I9901
aF0.80000000000000004
aa(lp21
I9902
aF0.80000000000000004
aa(lp22
I9900
aF0.80000000000000004
aasI9883
(lp23
(lp24
I9903
aF1
aasI-1
(lp25
I9789
aI9788
aI9881
aI9926
aI9915
aI9924
aI9803
aI9800
aI9791
aI9912
aI9783
aI9897
aI9790
aI9898
aI9844
aI9886
aI9927
aI9913
aI9876
aI9914
as.