(dp1
I9905
(lp2
(lp3
I9906
aF1
aa(lp4
I9907
aF1
aasI9906
(lp5
(lp6
I9906
aF1
aa(lp7
I9905
aF1
aa(lp8
I9907
aF1
aa(lp9
I9905
aF0.75
aa(lp10
I9907
aF1
aasI9907
(lp11
(lp12
I9906
aF1
aa(lp13
I9905
aF0.75
aasI-1
(lp14
I8529
aI9463
aI8399
aI8532
aI8456
aI8461
aI9904
aI8537
aI661
aI8448
aI8184
aI8515
aI8145
aI8146
aI715
aI8523
aI8469
aI8460
aI9460
aI6857
aI8070
asI8534
(lp15
(lp16
I9905
aF0.75
aa(lp17
I9907
aF1
aas.