(dp1
I9924
(lp2
(lp3
I9927
aF1
aa(lp4
I9925
aF0.80000000000000004
aa(lp5
I9926
aF0.80000000000000004
aa(lp6
I9801
aF0.5
aasI9925
(lp7
(lp8
I9927
aF1
aa(lp9
I9924
aF0.80000000000000004
aa(lp10
I9926
aF0.80000000000000004
aasI9926
(lp11
(lp12
I9927
aF1
aa(lp13
I9925
aF0.80000000000000004
aa(lp14
I9924
aF0.80000000000000004
aasI9927
(lp15
(lp16
I9927
aF1
aa(lp17
I9925
aF1
aa(lp18
I9924
aF1
aa(lp19
I9926
aF1
aa(lp20
I9801
aF1
aa(lp21
I9925
aF0.80000000000000004
aa(lp22
I9924
aF0.80000000000000004
aa(lp23
I9926
aF0.80000000000000004
aa(lp24
I9801
aF0.5
aasI9801
(lp25
(lp26
I9927
aF1
aasI9789
(lp27
(lp28
I9801
aF0.5
aasI-1
(lp29
I9887
aI9886
aI9883
aI9901
aI9788
aI9915
aI9912
aI9803
aI9903
aI9914
aI9881
aI9913
aI9790
aI9787
aI9800
aI9897
aI9876
aI9784
aI9833
as.