(dp1
I8551
(lp2
(lp3
I9930
aF0.5
aasI9928
(lp4
(lp5
I9928
aF1
aa(lp6
I9931
aF1
aa(lp7
I9930
aF1
aa(lp8
I9931
aF0.40000000000000002
aa(lp9
I9930
aF0.5
aasI9929
(lp10
(lp11
I9931
aF0.40000000000000002
aa(lp12
I9930
aF0.5
aasI9930
(lp13
(lp14
I9928
aF1
aasI9931
(lp15
(lp16
I9928
aF1
aasI2088
(lp17
(lp18
I9931
aF0.40000000000000002
aasI-1
(lp19
I5043
aI9808
aI9809
aI2091
aI9791
aI9780
aI9825
aI6238
aI9449
aI8537
aI2095
aI9450
aI9824
aI9788
aI1642
aI3201
aI6880
aI1942
aI1940
aI9446
as.