(dp1
I4131
(lp2
(lp3
I9990
aF0.59999999999999998
aasI9988
(lp4
(lp5
I9989
aF1
aa(lp6
I9991
aF1
aasI9989
(lp7
(lp8
I9989
aF1
aa(lp9
I9991
aF1
aa(lp10
I9990
aF1
aa(lp11
I9988
aF1
aa(lp12
I9991
aF1
aa(lp13
I9990
aF0.59999999999999998
aa(lp14
I9988
aF0.5
aasI9990
(lp15
(lp16
I9989
aF1
aa(lp17
I9991
aF1
aasI9991
(lp18
(lp19
I9989
aF1
aa(lp20
I9990
aF0.59999999999999998
aa(lp21
I9988
aF0.5
aasI7769
(lp22
(lp23
I9988
aF0.5
aasI-1
(lp24
I4852
aI4854
aI4230
aI5640
aI4853
aI4228
aI5643
aI3985
aI4515
aI3987
aI4850
aI5012
aI3984
aI3986
aI4514
aI5641
aI4921
aI4229
aI6344
aI4890
as.